

Microchip MPLAB XC8 Assembler V2.10 build 88905656 
                                                                                               Sat Jan  4 14:33:27 2020

Microchip MPLAB XC8 C Compiler v2.10 (Free license) build 20190730164152 Og1 
     1                           	processor	18F4520
     2                           	fnconf	rparam,??,?,0
     3                           	opt	pw 120
     4                           	opt	flic
     5                           	psect	idataCOMRAM,global,class=CODE,delta=1,noexec
     6                           	psect	nvCOMRAM,global,class=COMRAM,space=1,delta=1,noexec
     7                           	psect	mediumconst,global,reloc=2,class=MEDIUMCONST,delta=1,noexec
     8                           	psect	cinit,global,reloc=2,class=CODE,delta=1
     9                           	psect	bssCOMRAM,global,class=COMRAM,space=1,delta=1,noexec
    10                           	psect	dataCOMRAM,global,class=COMRAM,space=1,delta=1,noexec
    11                           	psect	bssBANK1,global,class=BANK1,space=1,delta=1,lowdata,noexec
    12                           	psect	cstackCOMRAM,global,class=COMRAM,space=1,delta=1,noexec
    13                           	psect	text0,global,reloc=2,class=CODE,delta=1
    14                           	psect	text1,global,reloc=2,class=CODE,delta=1
    15                           	psect	text2,global,reloc=2,class=CODE,delta=1
    16                           	psect	text3,global,reloc=2,class=CODE,delta=1
    17                           	psect	text4,global,reloc=2,class=CODE,delta=1
    18                           	psect	text5,global,reloc=2,class=CODE,delta=1
    19                           	psect	text6,global,reloc=2,class=CODE,delta=1
    20                           	psect	text7,global,reloc=2,class=CODE,delta=1
    21                           	psect	text8,global,reloc=2,class=CODE,delta=1
    22                           	psect	text9,global,reloc=2,class=CODE,delta=1
    23                           	psect	text10,global,reloc=2,class=CODE,delta=1
    24                           	psect	intcode,global,reloc=2,class=CODE,delta=1
    25                           	psect	intcode_body,global,reloc=2,class=CODE,delta=1
    26                           	psect	text12,global,reloc=2,class=CODE,delta=1
    27                           	psect	text13,global,reloc=2,class=CODE,delta=1
    28                           	psect	intsave_regs,global,class=BIGRAM,space=1,delta=1,noexec
    29                           	psect	rparam,global,class=COMRAM,space=1,delta=1,noexec
    30                           	psect	temp,global,ovrld,common,class=COMRAM,space=1,delta=1
    31  0000                     
    32                           ; Version 2.10
    33                           ; Generated 31/07/2019 GMT
    34                           ; 
    35                           ; Copyright © 2019, Microchip Technology Inc. and its subsidiaries ("Microchip")
    36                           ; All rights reserved.
    37                           ; 
    38                           ; This software is developed by Microchip Technology Inc. and its subsidiaries ("Microch
      +                          ip").
    39                           ; 
    40                           ; Redistribution and use in source and binary forms, with or without modification, are
    41                           ; permitted provided that the following conditions are met:
    42                           ; 
    43                           ;     1. Redistributions of source code must retain the above copyright notice, this lis
      +                          t of
    44                           ;        conditions and the following disclaimer.
    45                           ; 
    46                           ;     2. Redistributions in binary form must reproduce the above copyright notice, this 
      +                          list
    47                           ;        of conditions and the following disclaimer in the documentation and/or other
    48                           ;        materials provided with the distribution.
    49                           ; 
    50                           ;     3. Microchip's name may not be used to endorse or promote products derived from th
      +                          is
    51                           ;        software without specific prior written permission.
    52                           ; 
    53                           ; THIS SOFTWARE IS PROVIDED BY MICROCHIP "AS IS" AND ANY EXPRESS OR IMPLIED WARRANTIES,
    54                           ; INCLUDING, BUT NOT LIMITED TO, THE IMPLIED WARRANTIES OF MERCHANTABILITY AND FITNESS F
      +                          OR
    55                           ; PURPOSE ARE DISCLAIMED.  IN NO EVENT SHALL MICROCHIP BE LIABLE FOR ANY DIRECT, INDIREC
      +                          T,
    56                           ; INCIDENTAL, SPECIAL, EXEMPLARY, OR CONSEQUENTIAL DAMAGES (INCLUDING BUT NOT LIMITED TO
    57                           ; PROCUREMENT OF SUBSTITUTE GOODS OR SERVICES; LOSS OF USE, DATA OR PROFITS; OR BUSINESS
    58                           ; INTERRUPTION) HOWSOEVER CAUSED AND ON ANY THEORY OF LIABILITY, WHETHER IN CONTRACT, ST
      +                          RICT
    59                           ; LIABILITY, OR TORT (INCLUDING NEGLIGENCE OR OTHERWISE) ARISING IN ANY WAY OUT OF THE U
      +                          SE OF
    60                           ; THIS SOFTWARE, EVEN IF ADVISED OF THE POSSIBILITY OF SUCH DAMAGE.
    61                           ; 
    62                           ; 
    63                           ; Code-generator required, PIC18F4520 Definitions
    64                           ; 
    65                           ; SFR Addresses
    66  0000                     
    67                           	psect	idataCOMRAM
    68  000A2A                     __pidataCOMRAM:
    69                           	opt callstack 0
    70                           
    71                           ;initializer for rtc_test@F3039
    72  000A2A  6E                 	db	110
    73  000A2B  69                 	db	105
    74  000A2C  6C                 	db	108
    75  000A2D  00                 	db	0
    76                           
    77                           ;initializer for _rx_Buffer_Tail
    78  000A2E  FFFF               	dw	65535
    79                           
    80                           ;initializer for _rx_Buffer_Head
    81  000A30  FFFF               	dw	65535
    82                           
    83                           	psect	nvCOMRAM
    84  000055                     __pnvCOMRAM:
    85                           	opt callstack 0
    86  000055                     _EN:
    87                           	opt callstack 0
    88  000055                     	ds	1
    89  000056                     _RS:
    90                           	opt callstack 0
    91  000056                     	ds	1
    92  0000                     _TMR1	set	4046
    93  0000                     _ADRES	set	4035
    94  0000                     _RCREG	set	4014
    95  0000                     _TXREG	set	4013
    96  0000                     _INTCONbits	set	4082
    97  0000                     _RCSTAbits	set	4011
    98  0000                     _TXSTAbits	set	4012
    99  0000                     _SPBRG	set	4015
   100  0000                     _SSPCON2bits	set	4037
   101  0000                     _PIR1bits	set	3998
   102  0000                     _TRISCbits	set	3988
   103  0000                     _ADCON1	set	4033
   104  0000                     _SSPADD	set	4040
   105  0000                     _LATE	set	3981
   106  0000                     _PORTE	set	3972
   107  0000                     _LATA	set	3977
   108  0000                     _PORTA	set	3968
   109  0000                     _LATC	set	3979
   110  0000                     _PORTC	set	3970
   111  0000                     _LATD	set	3980
   112  0000                     _LATB	set	3978
   113  0000                     _PORTB	set	3969
   114  0000                     _TRISE	set	3990
   115  0000                     _TRISA	set	3986
   116  0000                     _TRISB	set	3987
   117  0000                     _EECON2	set	4007
   118  0000                     _EECON1bits	set	4006
   119  0000                     _EEDATA	set	4008
   120  0000                     _EEADR	set	4009
   121  0000                     _ADCON0	set	4034
   122  0000                     _ADCON2	set	4032
   123  0000                     _SSPSTATbits	set	4039
   124  0000                     _SSPBUF	set	4041
   125  0000                     _TRISC	set	3988
   126  0000                     _SSPCON1	set	4038
   127  0000                     _SSPSTAT	set	4039
   128  0000                     _PORTD	set	3971
   129  0000                     _TRISD	set	3989
   130  0000                     _TMR1ON	set	32360
   131  0000                     _T1CKPS0	set	32364
   132  0000                     _TMR0ON	set	32431
   133  0000                     _T08BIT	set	32430
   134  0000                     _T0CS	set	32429
   135  0000                     _PSA	set	32427
   136  0000                     _T0PS2	set	32426
   137  0000                     _T0PS1	set	32425
   138  0000                     _T0PS0	set	32424
   139  0000                     _TMR0IF	set	32658
   140  0000                     _TMR0IE	set	32661
   141  0000                     _RCIF	set	31989
   142  0000                     _PEIE	set	32662
   143  0000                     _RCIE	set	31981
   144  0000                     _EEIF	set	32012
   145  0000                     _GIE	set	32663
   146  0000                     _GODONE	set	32273
   147  0000                     _ADON	set	32272
   148                           
   149                           	psect	mediumconst
   150  007DE8                     __pmediumconst:
   151                           	opt callstack 0
   152  007DE8  00                 	db	0
   153  007DE9  41                 	db	65	;'A'
   154  007DEA  63                 	db	99	;'c'
   155  007DEB  58                 	db	88	;'X'
   156  007DEC  20                 	db	32
   157  007DED  3D                 	db	61	;'='
   158  007DEE  25                 	db	37
   159  007DEF  64                 	db	100	;'d'
   160  007DF0  20                 	db	32
   161  007DF1  7C                 	db	124
   162  007DF2  20                 	db	32
   163  007DF3  41                 	db	65	;'A'
   164  007DF4  63                 	db	99	;'c'
   165  007DF5  59                 	db	89	;'Y'
   166  007DF6  20                 	db	32
   167  007DF7  3D                 	db	61	;'='
   168  007DF8  25                 	db	37
   169  007DF9  64                 	db	100	;'d'
   170  007DFA  20                 	db	32
   171  007DFB  7C                 	db	124
   172  007DFC  20                 	db	32
   173  007DFD  41                 	db	65	;'A'
   174  007DFE  63                 	db	99	;'c'
   175  007DFF  5A                 	db	90	;'Z'
   176  007E00  20                 	db	32
   177  007E01  3D                 	db	61	;'='
   178  007E02  25                 	db	37
   179  007E03  64                 	db	100	;'d'
   180  007E04  20                 	db	32
   181  007E05  7C                 	db	124
   182  007E06  20                 	db	32
   183  007E07  54                 	db	84	;'T'
   184  007E08  65                 	db	101	;'e'
   185  007E09  6D                 	db	109	;'m'
   186  007E0A  70                 	db	112	;'p'
   187  007E0B  20                 	db	32
   188  007E0C  3D                 	db	61	;'='
   189  007E0D  25                 	db	37
   190  007E0E  64                 	db	100	;'d'
   191  007E0F  20                 	db	32
   192  007E10  00                 	db	0
   193  007E11                     STR_49:
   194  007E11  2D                 	db	45
   195  007E12  2D                 	db	45
   196  007E13  2D                 	db	45
   197  007E14  2D                 	db	45
   198  007E15  2D                 	db	45
   199  007E16  2D                 	db	45
   200  007E17  2D                 	db	45
   201  007E18  2D                 	db	45
   202  007E19  2D                 	db	45
   203  007E1A  2D                 	db	45
   204  007E1B  2D                 	db	45
   205  007E1C  2D                 	db	45
   206  007E1D  2D                 	db	45
   207  007E1E  2D                 	db	45
   208  007E1F  2D                 	db	45
   209  007E20  2D                 	db	45
   210  007E21  2D                 	db	45
   211  007E22  2D                 	db	45
   212  007E23  2D                 	db	45
   213  007E24  2D                 	db	45
   214  007E25  0D                 	db	13
   215  007E26  0A                 	db	10
   216  007E27  00                 	db	0
   217  007E28  2D                 	db	45
   218  007E29  2D                 	db	45
   219  007E2A  2D                 	db	45
   220  007E2B  2D                 	db	45
   221  007E2C  2D                 	db	45
   222  007E2D  2D                 	db	45
   223  007E2E  2D                 	db	45
   224  007E2F  2D                 	db	45
   225  007E30  2D                 	db	45
   226  007E31  2D                 	db	45
   227  007E32  2D                 	db	45
   228  007E33  2D                 	db	45
   229  007E34  2D                 	db	45
   230  007E35  2D                 	db	45
   231  007E36  2D                 	db	45
   232  007E37  2D                 	db	45
   233  007E38  2D                 	db	45
   234  007E39  2D                 	db	45
   235  007E3A  2D                 	db	45
   236  007E3B  2D                 	db	45
   237  007E3C  2D                 	db	45
   238  007E3D  2D                 	db	45
   239  007E3E  00                 	db	0
   240  007E3F  50                 	db	80	;'P'
   241  007E40  49                 	db	73	;'I'
   242  007E41  43                 	db	67	;'C'
   243  007E42  31                 	db	49	;'1'
   244  007E43  38                 	db	56	;'8'
   245  007E44  46                 	db	70	;'F'
   246  007E45  20                 	db	32
   247  007E46  53                 	db	83	;'S'
   248  007E47  65                 	db	101	;'e'
   249  007E48  72                 	db	114	;'r'
   250  007E49  69                 	db	105	;'i'
   251  007E4A  61                 	db	97	;'a'
   252  007E4B  6C                 	db	108	;'l'
   253  007E4C  20                 	db	32
   254  007E4D  54                 	db	84	;'T'
   255  007E4E  65                 	db	101	;'e'
   256  007E4F  73                 	db	115	;'s'
   257  007E50  74                 	db	116	;'t'
   258  007E51  0D                 	db	13
   259  007E52  0A                 	db	10
   260  007E53  00                 	db	0
   261  007E54  45                 	db	69	;'E'
   262  007E55  78                 	db	120	;'x'
   263  007E56  74                 	db	116	;'t'
   264  007E57  65                 	db	101	;'e'
   265  007E58  72                 	db	114	;'r'
   266  007E59  6E                 	db	110	;'n'
   267  007E5A  61                 	db	97	;'a'
   268  007E5B  6C                 	db	108	;'l'
   269  007E5C  20                 	db	32
   270  007E5D  53                 	db	83	;'S'
   271  007E5E  50                 	db	80	;'P'
   272  007E5F  49                 	db	73	;'I'
   273  007E60  20                 	db	32
   274  007E61  54                 	db	84	;'T'
   275  007E62  65                 	db	101	;'e'
   276  007E63  73                 	db	115	;'s'
   277  007E64  74                 	db	116	;'t'
   278  007E65  0D                 	db	13
   279  007E66  0A                 	db	10
   280  007E67  00                 	db	0
   281  007E68  52                 	db	82	;'R'
   282  007E69  65                 	db	101	;'e'
   283  007E6A  61                 	db	97	;'a'
   284  007E6B  64                 	db	100	;'d'
   285  007E6C  69                 	db	105	;'i'
   286  007E6D  6E                 	db	110	;'n'
   287  007E6E  67                 	db	103	;'g'
   288  007E6F  20                 	db	32
   289  007E70  74                 	db	116	;'t'
   290  007E71  68                 	db	104	;'h'
   291  007E72  65                 	db	101	;'e'
   292  007E73  20                 	db	32
   293  007E74  64                 	db	100	;'d'
   294  007E75  61                 	db	97	;'a'
   295  007E76  74                 	db	116	;'t'
   296  007E77  61                 	db	97	;'a'
   297  007E78  0D                 	db	13
   298  007E79  0A                 	db	10
   299  007E7A  00                 	db	0
   300  007E7B  57                 	db	87	;'W'
   301  007E7C  72                 	db	114	;'r'
   302  007E7D  69                 	db	105	;'i'
   303  007E7E  74                 	db	116	;'t'
   304  007E7F  69                 	db	105	;'i'
   305  007E80  6E                 	db	110	;'n'
   306  007E81  67                 	db	103	;'g'
   307  007E82  20                 	db	32
   308  007E83  74                 	db	116	;'t'
   309  007E84  68                 	db	104	;'h'
   310  007E85  65                 	db	101	;'e'
   311  007E86  20                 	db	32
   312  007E87  64                 	db	100	;'d'
   313  007E88  61                 	db	97	;'a'
   314  007E89  74                 	db	116	;'t'
   315  007E8A  61                 	db	97	;'a'
   316  007E8B  0D                 	db	13
   317  007E8C  0A                 	db	10
   318  007E8D  00                 	db	0
   319  007E8E  45                 	db	69	;'E'
   320  007E8F  45                 	db	69	;'E'
   321  007E90  50                 	db	80	;'P'
   322  007E91  52                 	db	82	;'R'
   323  007E92  4F                 	db	79	;'O'
   324  007E93  4D                 	db	77	;'M'
   325  007E94  20                 	db	32
   326  007E95  54                 	db	84	;'T'
   327  007E96  65                 	db	101	;'e'
   328  007E97  73                 	db	115	;'s'
   329  007E98  74                 	db	116	;'t'
   330  007E99  69                 	db	105	;'i'
   331  007E9A  6E                 	db	110	;'n'
   332  007E9B  67                 	db	103	;'g'
   333  007E9C  0D                 	db	13
   334  007E9D  0A                 	db	10
   335  007E9E  00                 	db	0
   336  007E9F  43                 	db	67	;'C'
   337  007EA0  68                 	db	104	;'h'
   338  007EA1  61                 	db	97	;'a'
   339  007EA2  6E                 	db	110	;'n'
   340  007EA3  6E                 	db	110	;'n'
   341  007EA4  65                 	db	101	;'e'
   342  007EA5  6C                 	db	108	;'l'
   343  007EA6  20                 	db	32
   344  007EA7  30                 	db	48	;'0'
   345  007EA8  20                 	db	32
   346  007EA9  3A                 	db	58	;':'
   347  007EAA  25                 	db	37
   348  007EAB  35                 	db	53	;'5'
   349  007EAC  2E                 	db	46
   350  007EAD  30                 	db	48	;'0'
   351  007EAE  64                 	db	100	;'d'
   352  007EAF  00                 	db	0
   353  007EB0  43                 	db	67	;'C'
   354  007EB1  68                 	db	104	;'h'
   355  007EB2  61                 	db	97	;'a'
   356  007EB3  6E                 	db	110	;'n'
   357  007EB4  6E                 	db	110	;'n'
   358  007EB5  65                 	db	101	;'e'
   359  007EB6  6C                 	db	108	;'l'
   360  007EB7  20                 	db	32
   361  007EB8  31                 	db	49	;'1'
   362  007EB9  20                 	db	32
   363  007EBA  3A                 	db	58	;':'
   364  007EBB  25                 	db	37
   365  007EBC  35                 	db	53	;'5'
   366  007EBD  2E                 	db	46
   367  007EBE  30                 	db	48	;'0'
   368  007EBF  64                 	db	100	;'d'
   369  007EC0  00                 	db	0
   370  007EC1  54                 	db	84	;'T'
   371  007EC2  65                 	db	101	;'e'
   372  007EC3  6D                 	db	109	;'m'
   373  007EC4  70                 	db	112	;'p'
   374  007EC5  65                 	db	101	;'e'
   375  007EC6  72                 	db	114	;'r'
   376  007EC7  61                 	db	97	;'a'
   377  007EC8  74                 	db	116	;'t'
   378  007EC9  75                 	db	117	;'u'
   379  007ECA  72                 	db	114	;'r'
   380  007ECB  65                 	db	101	;'e'
   381  007ECC  20                 	db	32
   382  007ECD  3A                 	db	58	;':'
   383  007ECE  25                 	db	37
   384  007ECF  64                 	db	100	;'d'
   385  007ED0  00                 	db	0
   386  007ED1  57                 	db	87	;'W'
   387  007ED2  61                 	db	97	;'a'
   388  007ED3  69                 	db	105	;'i'
   389  007ED4  74                 	db	116	;'t'
   390  007ED5  69                 	db	105	;'i'
   391  007ED6  6E                 	db	110	;'n'
   392  007ED7  67                 	db	103	;'g'
   393  007ED8  20                 	db	32
   394  007ED9  46                 	db	70	;'F'
   395  007EDA  6F                 	db	111	;'o'
   396  007EDB  72                 	db	114	;'r'
   397  007EDC  20                 	db	32
   398  007EDD  4D                 	db	77	;'M'
   399  007EDE  73                 	db	115	;'s'
   400  007EDF  67                 	db	103	;'g'
   401  007EE0  00                 	db	0
   402  007EE1  4D                 	db	77	;'M'
   403  007EE2  50                 	db	80	;'P'
   404  007EE3  55                 	db	85	;'U'
   405  007EE4  36                 	db	54	;'6'
   406  007EE5  30                 	db	48	;'0'
   407  007EE6  35                 	db	53	;'5'
   408  007EE7  30                 	db	48	;'0'
   409  007EE8  20                 	db	32
   410  007EE9  54                 	db	84	;'T'
   411  007EEA  65                 	db	101	;'e'
   412  007EEB  73                 	db	115	;'s'
   413  007EEC  74                 	db	116	;'t'
   414  007EED  0D                 	db	13
   415  007EEE  0A                 	db	10
   416  007EEF  00                 	db	0
   417  007EF0  49                 	db	73	;'I'
   418  007EF1  32                 	db	50	;'2'
   419  007EF2  43                 	db	67	;'C'
   420  007EF3  20                 	db	32
   421  007EF4  45                 	db	69	;'E'
   422  007EF5  45                 	db	69	;'E'
   423  007EF6  50                 	db	80	;'P'
   424  007EF7  52                 	db	82	;'R'
   425  007EF8  4F                 	db	79	;'O'
   426  007EF9  4D                 	db	77	;'M'
   427  007EFA  20                 	db	32
   428  007EFB  0D                 	db	13
   429  007EFC  0A                 	db	10
   430  007EFD  00                 	db	0
   431  007EFE  57                 	db	87	;'W'
   432  007EFF  72                 	db	114	;'r'
   433  007F00  69                 	db	105	;'i'
   434  007F01  74                 	db	116	;'t'
   435  007F02  65                 	db	101	;'e'
   436  007F03  20                 	db	32
   437  007F04  44                 	db	68	;'D'
   438  007F05  6F                 	db	111	;'o'
   439  007F06  6E                 	db	110	;'n'
   440  007F07  65                 	db	101	;'e'
   441  007F08  20                 	db	32
   442  007F09  0D                 	db	13
   443  007F0A  0A                 	db	10
   444  007F0B  00                 	db	0
   445  007F0C                     STR_21:
   446  007F0C  41                 	db	65	;'A'
   447  007F0D  44                 	db	68	;'D'
   448  007F0E  43                 	db	67	;'C'
   449  007F0F  20                 	db	32
   450  007F10  54                 	db	84	;'T'
   451  007F11  65                 	db	101	;'e'
   452  007F12  73                 	db	115	;'s'
   453  007F13  74                 	db	116	;'t'
   454  007F14  20                 	db	32
   455  007F15  2E                 	db	46
   456  007F16  2E                 	db	46
   457  007F17  2E                 	db	46
   458  007F18  2E                 	db	46
   459  007F19  00                 	db	0
   460  007F1A  50                 	db	80	;'P'
   461  007F1B  49                 	db	73	;'I'
   462  007F1C  43                 	db	67	;'C'
   463  007F1D  31                 	db	49	;'1'
   464  007F1E  38                 	db	56	;'8'
   465  007F1F  46                 	db	70	;'F'
   466  007F20  20                 	db	32
   467  007F21  45                 	db	69	;'E'
   468  007F22  45                 	db	69	;'E'
   469  007F23  50                 	db	80	;'P'
   470  007F24  52                 	db	82	;'R'
   471  007F25  4F                 	db	79	;'O'
   472  007F26  4D                 	db	77	;'M'
   473  007F27  00                 	db	0
   474  007F28                     STR_20:
   475  007F28  50                 	db	80	;'P'
   476  007F29  49                 	db	73	;'I'
   477  007F2A  43                 	db	67	;'C'
   478  007F2B  20                 	db	32
   479  007F2C  4C                 	db	76	;'L'
   480  007F2D  69                 	db	105	;'i'
   481  007F2E  62                 	db	98	;'b'
   482  007F2F  72                 	db	114	;'r'
   483  007F30  61                 	db	97	;'a'
   484  007F31  72                 	db	114	;'r'
   485  007F32  69                 	db	105	;'i'
   486  007F33  65                 	db	101	;'e'
   487  007F34  73                 	db	115	;'s'
   488  007F35  00                 	db	0
   489  007F36  44                 	db	68	;'D'
   490  007F37  69                 	db	105	;'i'
   491  007F38  73                 	db	115	;'s'
   492  007F39  74                 	db	116	;'t'
   493  007F3A  61                 	db	97	;'a'
   494  007F3B  6E                 	db	110	;'n'
   495  007F3C  63                 	db	99	;'c'
   496  007F3D  65                 	db	101	;'e'
   497  007F3E  20                 	db	32
   498  007F3F  3A                 	db	58	;':'
   499  007F40  25                 	db	37
   500  007F41  64                 	db	100	;'d'
   501  007F42  00                 	db	0
   502  007F43  48                 	db	72	;'H'
   503  007F44  75                 	db	117	;'u'
   504  007F45  6D                 	db	109	;'m'
   505  007F46  69                 	db	105	;'i'
   506  007F47  64                 	db	100	;'d'
   507  007F48  69                 	db	105	;'i'
   508  007F49  74                 	db	116	;'t'
   509  007F4A  79                 	db	121	;'y'
   510  007F4B  20                 	db	32
   511  007F4C  3A                 	db	58	;':'
   512  007F4D  25                 	db	37
   513  007F4E  64                 	db	100	;'d'
   514  007F4F  00                 	db	0
   515  007F50  48                 	db	72	;'H'
   516  007F51  65                 	db	101	;'e'
   517  007F52  6C                 	db	108	;'l'
   518  007F53  6C                 	db	108	;'l'
   519  007F54  6F                 	db	111	;'o'
   520  007F55  20                 	db	32
   521  007F56  50                 	db	80	;'P'
   522  007F57  49                 	db	73	;'I'
   523  007F58  43                 	db	67	;'C'
   524  007F59  0D                 	db	13
   525  007F5A  0A                 	db	10
   526  007F5B  00                 	db	0
   527  007F5C                     STR_41:
   528  007F5C  49                 	db	73	;'I'
   529  007F5D  32                 	db	50	;'2'
   530  007F5E  43                 	db	67	;'C'
   531  007F5F  20                 	db	32
   532  007F60  52                 	db	82	;'R'
   533  007F61  54                 	db	84	;'T'
   534  007F62  43                 	db	67	;'C'
   535  007F63  20                 	db	32
   536  007F64  0D                 	db	13
   537  007F65  0A                 	db	10
   538  007F66  00                 	db	0
   539  007F67  4E                 	db	78	;'N'
   540  007F68  65                 	db	101	;'e'
   541  007F69  77                 	db	119	;'w'
   542  007F6A  20                 	db	32
   543  007F6B  53                 	db	83	;'S'
   544  007F6C  4D                 	db	77	;'M'
   545  007F6D  53                 	db	83	;'S'
   546  007F6E  20                 	db	32
   547  007F6F  21                 	db	33
   548  007F70  21                 	db	33
   549  007F71  00                 	db	0
   550  007F72  41                 	db	65	;'A'
   551  007F73  44                 	db	68	;'D'
   552  007F74  43                 	db	67	;'C'
   553  007F75  20                 	db	32
   554  007F76  30                 	db	48	;'0'
   555  007F77  3A                 	db	58	;':'
   556  007F78  20                 	db	32
   557  007F79  25                 	db	37
   558  007F7A  64                 	db	100	;'d'
   559  007F7B  00                 	db	0
   560  007F7C  41                 	db	65	;'A'
   561  007F7D  54                 	db	84	;'T'
   562  007F7E  2B                 	db	43
   563  007F7F  43                 	db	67	;'C'
   564  007F80  4D                 	db	77	;'M'
   565  007F81  47                 	db	71	;'G'
   566  007F82  46                 	db	70	;'F'
   567  007F83  3D                 	db	61	;'='
   568  007F84  31                 	db	49	;'1'
   569  007F85  00                 	db	0
   570  007F86  54                 	db	84	;'T'
   571  007F87  49                 	db	73	;'I'
   572  007F88  43                 	db	67	;'C'
   573  007F89  4B                 	db	75	;'K'
   574  007F8A  3A                 	db	58	;':'
   575  007F8B  20                 	db	32
   576  007F8C  25                 	db	37
   577  007F8D  64                 	db	100	;'d'
   578  007F8E  00                 	db	0
   579  007F8F  47                 	db	71	;'G'
   580  007F90  53                 	db	83	;'S'
   581  007F91  4D                 	db	77	;'M'
   582  007F92  20                 	db	32
   583  007F93  49                 	db	73	;'I'
   584  007F94  6E                 	db	110	;'n'
   585  007F95  69                 	db	105	;'i'
   586  007F96  74                 	db	116	;'t'
   587  007F97  00                 	db	0
   588  007F98  41                 	db	65	;'A'
   589  007F99  54                 	db	84	;'T'
   590  007F9A  2B                 	db	43
   591  007F9B  43                 	db	67	;'C'
   592  007F9C  4D                 	db	77	;'M'
   593  007F9D  47                 	db	71	;'G'
   594  007F9E  52                 	db	82	;'R'
   595  007F9F  3D                 	db	61	;'='
   596  007FA0  00                 	db	0
   597  007FA1  41                 	db	65	;'A'
   598  007FA2  54                 	db	84	;'T'
   599  007FA3  2B                 	db	43
   600  007FA4  43                 	db	67	;'C'
   601  007FA5  4D                 	db	77	;'M'
   602  007FA6  47                 	db	71	;'G'
   603  007FA7  53                 	db	83	;'S'
   604  007FA8  3D                 	db	61	;'='
   605  007FA9  00                 	db	0
   606  007FAA  41                 	db	65	;'A'
   607  007FAB  54                 	db	84	;'T'
   608  007FAC  2B                 	db	43
   609  007FAD  43                 	db	67	;'C'
   610  007FAE  53                 	db	83	;'S'
   611  007FAF  50                 	db	80	;'P'
   612  007FB0  4E                 	db	78	;'N'
   613  007FB1  3F                 	db	63	;'?'
   614  007FB2  00                 	db	0
   615  007FB3  52                 	db	82	;'R'
   616  007FB4  65                 	db	101	;'e'
   617  007FB5  61                 	db	97	;'a'
   618  007FB6  64                 	db	100	;'d'
   619  007FB7  20                 	db	32
   620  007FB8  0D                 	db	13
   621  007FB9  0A                 	db	10
   622  007FBA  00                 	db	0
   623  007FBB                     STR_16:
   624  007FBB  48                 	db	72	;'H'
   625  007FBC  43                 	db	67	;'C'
   626  007FBD  2D                 	db	45
   627  007FBE  53                 	db	83	;'S'
   628  007FBF  52                 	db	82	;'R'
   629  007FC0  30                 	db	48	;'0'
   630  007FC1  34                 	db	52	;'4'
   631  007FC2  00                 	db	0
   632  007FC3  49                 	db	73	;'I'
   633  007FC4  32                 	db	50	;'2'
   634  007FC5  43                 	db	67	;'C'
   635  007FC6  20                 	db	32
   636  007FC7  52                 	db	82	;'R'
   637  007FC8  54                 	db	84	;'T'
   638  007FC9  43                 	db	67	;'C'
   639  007FCA  00                 	db	0
   640  007FCB                     STR_19:
   641  007FCB  20                 	db	32
   642  007FCC  4D                 	db	77	;'M'
   643  007FCD  61                 	db	97	;'a'
   644  007FCE  73                 	db	115	;'s'
   645  007FCF  74                 	db	116	;'t'
   646  007FD0  65                 	db	101	;'e'
   647  007FD1  72                 	db	114	;'r'
   648  007FD2  00                 	db	0
   649  007FD3  44                 	db	68	;'D'
   650  007FD4  61                 	db	97	;'a'
   651  007FD5  74                 	db	116	;'t'
   652  007FD6  61                 	db	97	;'a'
   653  007FD7  20                 	db	32
   654  007FD8  3A                 	db	58	;':'
   655  007FD9  00                 	db	0
   656  007FDA  54                 	db	84	;'T'
   657  007FDB  69                 	db	105	;'i'
   658  007FDC  6D                 	db	109	;'m'
   659  007FDD  65                 	db	101	;'e'
   660  007FDE  20                 	db	32
   661  007FDF  3A                 	db	58	;':'
   662  007FE0  00                 	db	0
   663  007FE1  44                 	db	68	;'D'
   664  007FE2  61                 	db	97	;'a'
   665  007FE3  74                 	db	116	;'t'
   666  007FE4  65                 	db	101	;'e'
   667  007FE5  20                 	db	32
   668  007FE6  3A                 	db	58	;':'
   669  007FE7  00                 	db	0
   670  007FE8  53                 	db	83	;'S'
   671  007FE9  49                 	db	73	;'I'
   672  007FEA  4D                 	db	77	;'M'
   673  007FEB  20                 	db	32
   674  007FEC  49                 	db	73	;'I'
   675  007FED  73                 	db	115	;'s'
   676  007FEE  00                 	db	0
   677  007FEF  41                 	db	65	;'A'
   678  007FF0  54                 	db	84	;'T'
   679  007FF1  45                 	db	69	;'E'
   680  007FF2  30                 	db	48	;'0'
   681  007FF3  00                 	db	0
   682  007FF4  68                 	db	104	;'h'
   683  007FF5  69                 	db	105	;'i'
   684  007FF6  00                 	db	0
   685  007FF7  4F                 	db	79	;'O'
   686  007FF8  4B                 	db	75	;'K'
   687  007FF9  00                 	db	0
   688  007FFA  41                 	db	65	;'A'
   689  007FFB  54                 	db	84	;'T'
   690  007FFC  00                 	db	0
   691  007FFD  0D                 	db	13
   692  007FFE  00                 	db	0
   693  0000                     
   694                           ; #config settings
   695  007FFF  00                 	db	0	; dummy byte at the end
   696  0000                     
   697                           	psect	cinit
   698  000916                     __pcinit:
   699                           	opt callstack 0
   700  000916                     start_initialization:
   701                           	opt callstack 0
   702  000916                     __initialization:
   703                           	opt callstack 0
   704                           
   705                           ; Initialize objects allocated to COMRAM (8 bytes)
   706                           ; load TBLPTR registers with __pidataCOMRAM
   707  000916  0E2A               	movlw	low __pidataCOMRAM
   708  000918  6EF6               	movwf	tblptrl,c
   709  00091A  0E0A               	movlw	high __pidataCOMRAM
   710  00091C  6EF7               	movwf	tblptrh,c
   711  00091E  0E00               	movlw	low (__pidataCOMRAM shr (0+16))
   712  000920  6EF8               	movwf	tblptru,c
   713  000922  EE00  F04D         	lfsr	0,__pdataCOMRAM
   714  000926  EE10 F008          	lfsr	1,8
   715  00092A                     copy_data0:
   716  00092A  0009               	tblrd		*+
   717  00092C  CFF5 FFEE          	movff	tablat,postinc0
   718  000930  50E5               	movf	postdec1,w,c
   719  000932  50E1               	movf	fsr1l,w,c
   720  000934  E1FA               	bnz	copy_data0
   721                           
   722                           ; Clear objects allocated to BANK1 (256 bytes)
   723  000936  EE01  F000         	lfsr	0,__pbssBANK1
   724  00093A  EE11 F000          	lfsr	1,256
   725  00093E                     clear_0:
   726  00093E  6AEE               	clrf	postinc0,c
   727  000940  50E5               	movf	postdec1,w,c
   728  000942  50E1               	movf	fsr1l,w,c
   729  000944  E1FC               	bnz	clear_0
   730  000946  50E2               	movf	fsr1h,w,c
   731  000948  E1FA               	bnz	clear_0
   732                           
   733                           ; Clear objects allocated to COMRAM (46 bytes)
   734  00094A  EE00  F001         	lfsr	0,__pbssCOMRAM
   735  00094E  0E2E               	movlw	46
   736  000950                     clear_1:
   737  000950  6AEE               	clrf	postinc0,c
   738  000952  06E8               	decf	wreg,f,c
   739  000954  E1FD               	bnz	clear_1
   740  000956                     end_of_initialization:
   741                           	opt callstack 0
   742  000956                     __end_of__initialization:
   743                           	opt callstack 0
   744  000956  9057               	bcf	int$flags,0,c	;clear compiler interrupt flag (level 1)
   745  000958  9257               	bcf	int$flags,1,c	;clear compiler interrupt flag (level 2)
   746  00095A  0E00               	movlw	low (__Lmediumconst shr (0+16))
   747  00095C  6EF8               	movwf	tblptru,c
   748  00095E  0100               	movlb	0
   749  000960  EFD0  F002         	goto	_main	;jump to C main() function
   750                           
   751                           	psect	bssCOMRAM
   752  000001                     __pbssCOMRAM:
   753                           	opt callstack 0
   754  000001                     	ds	16
   755  000011                     	ds	16
   756  000021                     _bits:
   757                           	opt callstack 0
   758  000021                     	ds	5
   759  000026                     _lcd_data_pins:
   760                           	opt callstack 0
   761  000026                     	ds	4
   762  00002A                     _system_tick:
   763                           	opt callstack 0
   764  00002A                     	ds	2
   765  00002C                     _temperature:
   766                           	opt callstack 0
   767  00002C                     	ds	1
   768  00002D                     _humidity:
   769                           	opt callstack 0
   770  00002D                     	ds	1
   771  00002E                     _timer_count:
   772                           	opt callstack 0
   773  00002E                     	ds	1
   774                           
   775                           	psect	dataCOMRAM
   776  00004D                     __pdataCOMRAM:
   777                           	opt callstack 0
   778  00004D                     rtc_test@F3039:
   779                           	opt callstack 0
   780  00004D                     	ds	4
   781  000051                     _rx_Buffer_Tail:
   782                           	opt callstack 0
   783  000051                     	ds	2
   784  000053                     _rx_Buffer_Head:
   785                           	opt callstack 0
   786  000053                     	ds	2
   787                           
   788                           	psect	bssBANK1
   789  000100                     __pbssBANK1:
   790                           	opt callstack 0
   791  000100                     _rxBuffer:
   792                           	opt callstack 0
   793  000100                     	ds	256
   794                           
   795                           	psect	cstackCOMRAM
   796  00002F                     __pcstackCOMRAM:
   797                           	opt callstack 0
   798  00002F                     ??_serial_interrupt:
   799  00002F                     
   800                           ; 1 bytes @ 0x0
   801  00002F                     	ds	2
   802  000031                     serial_interrupt@rxData:
   803                           	opt callstack 0
   804                           
   805                           ; 1 bytes @ 0x2
   806  000031                     	ds	1
   807  000032                     ??_ISR:
   808                           
   809                           ; 1 bytes @ 0x3
   810  000032                     	ds	2
   811  000034                     gpio_pin_mode@mode:
   812                           	opt callstack 0
   813  000034                     gpio_pin_write@bit_val:
   814                           	opt callstack 0
   815  000034                     delay_ms@d:
   816                           	opt callstack 0
   817                           
   818                           ; 2 bytes @ 0x5
   819  000034                     	ds	1
   820  000035                     ??_gpio_pin_mode:
   821  000035                     ??_gpio_pin_write:
   822                           
   823                           ; 1 bytes @ 0x6
   824  000035                     	ds	1
   825  000036                     ??_delay_ms:
   826                           
   827                           ; 1 bytes @ 0x7
   828  000036                     	ds	1
   829  000037                     gpio_pin_mode@pin:
   830                           	opt callstack 0
   831  000037                     gpio_pin_write@pin:
   832                           	opt callstack 0
   833  000037                     delay_ms@i:
   834                           	opt callstack 0
   835                           
   836                           ; 2 bytes @ 0x8
   837  000037                     	ds	1
   838  000038                     ??_lcd_nibble:
   839                           
   840                           ; 1 bytes @ 0x9
   841  000038                     	ds	2
   842  00003A                     lcd_nibble@nibble:
   843                           	opt callstack 0
   844                           
   845                           ; 1 bytes @ 0xB
   846  00003A                     	ds	1
   847  00003B                     lcd_nibble@i:
   848                           	opt callstack 0
   849                           
   850                           ; 1 bytes @ 0xC
   851  00003B                     	ds	1
   852  00003C                     lcd_send@rs_pin:
   853                           	opt callstack 0
   854                           
   855                           ; 1 bytes @ 0xD
   856  00003C                     	ds	1
   857  00003D                     lcd_send@high_nibble:
   858                           	opt callstack 0
   859                           
   860                           ; 1 bytes @ 0xE
   861  00003D                     	ds	1
   862  00003E                     lcd_send@low_nibble:
   863                           	opt callstack 0
   864                           
   865                           ; 1 bytes @ 0xF
   866  00003E                     	ds	1
   867  00003F                     lcd_send@byte:
   868                           	opt callstack 0
   869                           
   870                           ; 1 bytes @ 0x10
   871  00003F                     	ds	1
   872  000040                     lcd_goto_xy@y:
   873                           	opt callstack 0
   874  000040                     lcd_init@d4:
   875                           	opt callstack 0
   876  000040                     lcd_print@str:
   877                           	opt callstack 0
   878                           
   879                           ; 2 bytes @ 0x11
   880  000040                     	ds	1
   881  000041                     lcd_goto_xy@x:
   882                           	opt callstack 0
   883                           
   884                           ; 1 bytes @ 0x12
   885  000041                     	ds	1
   886  000042                     lcd_print_xy@y:
   887                           	opt callstack 0
   888  000042                     lcd_init@d5:
   889                           	opt callstack 0
   890                           
   891                           ; 2 bytes @ 0x13
   892  000042                     	ds	1
   893  000043                     lcd_print_xy@str:
   894                           	opt callstack 0
   895                           
   896                           ; 2 bytes @ 0x14
   897  000043                     	ds	1
   898  000044                     lcd_init@d6:
   899                           	opt callstack 0
   900                           
   901                           ; 2 bytes @ 0x15
   902  000044                     	ds	1
   903  000045                     lcd_print_xy@x:
   904                           	opt callstack 0
   905                           
   906                           ; 1 bytes @ 0x16
   907  000045                     	ds	1
   908  000046                     lcd_init@d7:
   909                           	opt callstack 0
   910                           
   911                           ; 2 bytes @ 0x17
   912  000046                     	ds	2
   913  000048                     lcd_init@rs:
   914                           	opt callstack 0
   915                           
   916                           ; 2 bytes @ 0x19
   917  000048                     	ds	2
   918  00004A                     lcd_init@en:
   919                           	opt callstack 0
   920                           
   921                           ; 2 bytes @ 0x1B
   922  00004A                     	ds	2
   923  00004C                     lcd_init@i:
   924                           	opt callstack 0
   925                           
   926                           ; 1 bytes @ 0x1D
   927  00004C                     	ds	1
   928  00004D                     
   929                           ; 1 bytes @ 0x1E
   930 ;;
   931 ;;Main: autosize = 0, tempsize = 0, incstack = 0, save=0
   932 ;;
   933 ;; *************** function _main *****************
   934 ;; Defined at:
   935 ;;		line 13 in file "main.c"
   936 ;; Parameters:    Size  Location     Type
   937 ;;		None
   938 ;; Auto vars:     Size  Location     Type
   939 ;;		None
   940 ;; Return value:  Size  Location     Type
   941 ;;                  1    wreg      void 
   942 ;; Registers used:
   943 ;;		wreg, fsr0l, fsr0h, fsr2l, fsr2h, status,2, status,0, tblptrl, tblptrh, tblptru, cstack
   944 ;; Tracked objects:
   945 ;;		On entry : 0/0
   946 ;;		On exit  : 0/0
   947 ;;		Unchanged: 0/0
   948 ;; Data sizes:     COMRAM   BANK0   BANK1   BANK2   BANK3   BANK4   BANK5
   949 ;;      Params:         0       0       0       0       0       0       0
   950 ;;      Locals:         0       0       0       0       0       0       0
   951 ;;      Temps:          0       0       0       0       0       0       0
   952 ;;      Totals:         0       0       0       0       0       0       0
   953 ;;Total ram usage:        0 bytes
   954 ;; Hardware stack levels required when called:    7
   955 ;; This function calls:
   956 ;;		_delay_ms
   957 ;;		_gpio_pin_mode
   958 ;;		_gpio_pin_write
   959 ;;		_lcd_clear
   960 ;;		_lcd_init
   961 ;;		_lcd_print_xy
   962 ;; This function is called by:
   963 ;;		Startup code after reset
   964 ;; This function uses a non-reentrant model
   965 ;;
   966                           
   967                           	psect	text0
   968  0005A0                     __ptext0:
   969                           	opt callstack 0
   970  0005A0                     _main:
   971                           	opt callstack 24
   972  0005A0                     
   973                           ;main.c: 15:     lcd_init(3,2,1,0,5,4);
   974  0005A0  0E00               	movlw	0
   975  0005A2  6E41               	movwf	(lcd_init@d4+1)^0,c
   976  0005A4  0E03               	movlw	3
   977  0005A6  6E40               	movwf	lcd_init@d4^0,c
   978  0005A8  0E00               	movlw	0
   979  0005AA  6E43               	movwf	(lcd_init@d5+1)^0,c
   980  0005AC  0E02               	movlw	2
   981  0005AE  6E42               	movwf	lcd_init@d5^0,c
   982  0005B0  0E00               	movlw	0
   983  0005B2  6E45               	movwf	(lcd_init@d6+1)^0,c
   984  0005B4  0E01               	movlw	1
   985  0005B6  6E44               	movwf	lcd_init@d6^0,c
   986  0005B8  0E00               	movlw	0
   987  0005BA  6E47               	movwf	(lcd_init@d7+1)^0,c
   988  0005BC  0E00               	movlw	0
   989  0005BE  6E46               	movwf	lcd_init@d7^0,c
   990  0005C0  0E00               	movlw	0
   991  0005C2  6E49               	movwf	(lcd_init@rs+1)^0,c
   992  0005C4  0E05               	movlw	5
   993  0005C6  6E48               	movwf	lcd_init@rs^0,c
   994  0005C8  0E00               	movlw	0
   995  0005CA  6E4B               	movwf	(lcd_init@en+1)^0,c
   996  0005CC  0E04               	movlw	4
   997  0005CE  6E4A               	movwf	lcd_init@en^0,c
   998  0005D0  EC85  F003         	call	_lcd_init	;wreg free
   999                           
  1000                           ;main.c: 16:     lcd_clear();
  1001  0005D4  EC0A  F005         	call	_lcd_clear	;wreg free
  1002  0005D8                     
  1003                           ;main.c: 17:     lcd_print_xy(0,0," Master");
  1004  0005D8  0E00               	movlw	0
  1005  0005DA  6E42               	movwf	lcd_print_xy@y^0,c
  1006  0005DC  0ECB               	movlw	low STR_19
  1007  0005DE  6E43               	movwf	lcd_print_xy@str^0,c
  1008  0005E0  0E7F               	movlw	high STR_19
  1009  0005E2  6E44               	movwf	(lcd_print_xy@str+1)^0,c
  1010  0005E4  0E00               	movlw	0
  1011  0005E6  ECFD  F004         	call	_lcd_print_xy
  1012  0005EA                     
  1013                           ;main.c: 18:     lcd_print_xy(0,1,"PIC Libraries");
  1014  0005EA  0E01               	movlw	1
  1015  0005EC  6E42               	movwf	lcd_print_xy@y^0,c
  1016  0005EE  0E28               	movlw	low STR_20
  1017  0005F0  6E43               	movwf	lcd_print_xy@str^0,c
  1018  0005F2  0E7F               	movlw	high STR_20
  1019  0005F4  6E44               	movwf	(lcd_print_xy@str+1)^0,c
  1020  0005F6  0E00               	movlw	0
  1021  0005F8  ECFD  F004         	call	_lcd_print_xy
  1022  0005FC                     
  1023                           ;main.c: 19:     gpio_pin_mode(14,0);
  1024  0005FC  0E00               	movlw	0
  1025  0005FE  6E34               	movwf	gpio_pin_mode@mode^0,c
  1026  000600  0E0E               	movlw	14
  1027  000602  EC38  F001         	call	_gpio_pin_mode
  1028  000606                     
  1029                           ;main.c: 20:     gpio_pin_mode(13,0);
  1030  000606  0E00               	movlw	0
  1031  000608  6E34               	movwf	gpio_pin_mode@mode^0,c
  1032  00060A  0E0D               	movlw	13
  1033  00060C  EC38  F001         	call	_gpio_pin_mode
  1034  000610                     l3734:
  1035                           
  1036                           ;main.c: 22:         gpio_pin_write(14,0);
  1037  000610  0E00               	movlw	0
  1038  000612  6E34               	movwf	gpio_pin_write@bit_val^0,c
  1039  000614  0E0E               	movlw	14
  1040  000616  EC09  F000         	call	_gpio_pin_write
  1041  00061A                     
  1042                           ;main.c: 23:         gpio_pin_write(13,0);
  1043  00061A  0E00               	movlw	0
  1044  00061C  6E34               	movwf	gpio_pin_write@bit_val^0,c
  1045  00061E  0E0D               	movlw	13
  1046  000620  EC09  F000         	call	_gpio_pin_write
  1047  000624                     
  1048                           ;main.c: 24:         delay_ms(1000);
  1049  000624  0E03               	movlw	3
  1050  000626  6E35               	movwf	(delay_ms@d+1)^0,c
  1051  000628  0EE8               	movlw	232
  1052  00062A  6E34               	movwf	delay_ms@d^0,c
  1053  00062C  ECD2  F004         	call	_delay_ms	;wreg free
  1054  000630                     
  1055                           ;main.c: 25:         gpio_pin_write(14,1);
  1056  000630  0E01               	movlw	1
  1057  000632  6E34               	movwf	gpio_pin_write@bit_val^0,c
  1058  000634  0E0E               	movlw	14
  1059  000636  EC09  F000         	call	_gpio_pin_write
  1060  00063A                     
  1061                           ;main.c: 26:         gpio_pin_write(13,1);
  1062  00063A  0E01               	movlw	1
  1063  00063C  6E34               	movwf	gpio_pin_write@bit_val^0,c
  1064  00063E  0E0D               	movlw	13
  1065  000640  EC09  F000         	call	_gpio_pin_write
  1066  000644                     
  1067                           ;main.c: 27:     delay_ms(1000);
  1068  000644  0E03               	movlw	3
  1069  000646  6E35               	movwf	(delay_ms@d+1)^0,c
  1070  000648  0EE8               	movlw	232
  1071  00064A  6E34               	movwf	delay_ms@d^0,c
  1072  00064C  ECD2  F004         	call	_delay_ms	;wreg free
  1073  000650  EF08  F003         	goto	l3734
  1074  000654  EF07  F000         	goto	start
  1075  000658                     __end_of_main:
  1076                           	opt callstack 0
  1077                           
  1078 ;; *************** function _lcd_print_xy *****************
  1079 ;; Defined at:
  1080 ;;		line 114 in file "modules/lcd/lcd.c"
  1081 ;; Parameters:    Size  Location     Type
  1082 ;;  x               1    wreg     unsigned char 
  1083 ;;  y               1   19[COMRAM] unsigned char 
  1084 ;;  str             2   20[COMRAM] PTR const unsigned char 
  1085 ;;		 -> STR_56(14), STR_55(8), STR_43(3), STR_40(8), 
  1086 ;;		 -> STR_28(14), system_tick_test@x1(16), STR_21(14), adc_test@line1(16), 
  1087 ;;		 -> STR_20(14), STR_19(8), STR_18(8), hcsr04_test@line1(16), 
  1088 ;;		 -> STR_16(8), gsm_test@msg(30), gsm_test@no(15), STR_12(16), 
  1089 ;;		 -> STR_11(7), gsm_test@pname(10), STR_10(9), STR_7(11), 
  1090 ;;		 -> gsm_msg_send@gsm_resp(32), gsm_init@gsm_resp(32), 
  1091 ;; Auto vars:     Size  Location     Type
  1092 ;;  x               1   22[COMRAM] unsigned char 
  1093 ;; Return value:  Size  Location     Type
  1094 ;;                  1    wreg      void 
  1095 ;; Registers used:
  1096 ;;		wreg, fsr0l, fsr0h, fsr2l, fsr2h, status,2, status,0, tblptrl, tblptrh, tblptru, cstack
  1097 ;; Tracked objects:
  1098 ;;		On entry : 0/0
  1099 ;;		On exit  : 0/0
  1100 ;;		Unchanged: 0/0
  1101 ;; Data sizes:     COMRAM   BANK0   BANK1   BANK2   BANK3   BANK4   BANK5
  1102 ;;      Params:         3       0       0       0       0       0       0
  1103 ;;      Locals:         1       0       0       0       0       0       0
  1104 ;;      Temps:          0       0       0       0       0       0       0
  1105 ;;      Totals:         4       0       0       0       0       0       0
  1106 ;;Total ram usage:        4 bytes
  1107 ;; Hardware stack levels used:    1
  1108 ;; Hardware stack levels required when called:    6
  1109 ;; This function calls:
  1110 ;;		_lcd_goto_xy
  1111 ;;		_lcd_print
  1112 ;; This function is called by:
  1113 ;;		_main
  1114 ;;		_debug
  1115 ;;		_gsm_test
  1116 ;;		_hcsr04_test
  1117 ;;		_lcd_test
  1118 ;;		_adc_test
  1119 ;;		_system_tick_test
  1120 ;;		_rtc_test
  1121 ;; This function uses a non-reentrant model
  1122 ;;
  1123                           
  1124                           	psect	text1
  1125  0009FA                     __ptext1:
  1126                           	opt callstack 0
  1127  0009FA                     _lcd_print_xy:
  1128                           	opt callstack 24
  1129                           
  1130                           ;incstack = 0
  1131                           ;lcd_print_xy@x stored from wreg
  1132  0009FA  6E45               	movwf	lcd_print_xy@x^0,c
  1133  0009FC                     
  1134                           ;modules/lcd/lcd.c: 114: void lcd_print_xy(unsigned char x,unsigned char y,const char *s
      +                          tr);modules/lcd/lcd.c: 115: {;modules/lcd/lcd.c: 116:     lcd_goto_xy(x,y);
  1135  0009FC  C042  F040         	movff	lcd_print_xy@y,lcd_goto_xy@y
  1136  000A00  5045               	movf	lcd_print_xy@x^0,w,c
  1137  000A02  ECB2  F004         	call	_lcd_goto_xy
  1138  000A06                     
  1139                           ;modules/lcd/lcd.c: 117:     lcd_print(str);
  1140  000A06  C043  F040         	movff	lcd_print_xy@str,lcd_print@str
  1141  000A0A  C044  F041         	movff	lcd_print_xy@str+1,lcd_print@str+1
  1142  000A0E  EC5D  F002         	call	_lcd_print	;wreg free
  1143  000A12  0012               	return		;funcret
  1144  000A14                     __end_of_lcd_print_xy:
  1145                           	opt callstack 0
  1146                           
  1147 ;; *************** function _lcd_print *****************
  1148 ;; Defined at:
  1149 ;;		line 78 in file "modules/lcd/lcd.c"
  1150 ;; Parameters:    Size  Location     Type
  1151 ;;  str             2   17[COMRAM] PTR const unsigned char 
  1152 ;;		 -> STR_56(14), STR_55(8), STR_43(3), STR_40(8), 
  1153 ;;		 -> STR_28(14), system_tick_test@x1(16), STR_21(14), adc_test@line1(16), 
  1154 ;;		 -> STR_20(14), STR_19(8), STR_18(8), hcsr04_test@line1(16), 
  1155 ;;		 -> STR_16(8), gsm_test@msg(30), gsm_test@no(15), STR_12(16), 
  1156 ;;		 -> STR_11(7), gsm_test@pname(10), STR_10(9), STR_7(11), 
  1157 ;;		 -> gsm_msg_send@gsm_resp(32), gsm_init@gsm_resp(32), 
  1158 ;; Auto vars:     Size  Location     Type
  1159 ;;		None
  1160 ;; Return value:  Size  Location     Type
  1161 ;;                  1    wreg      void 
  1162 ;; Registers used:
  1163 ;;		wreg, fsr0l, fsr0h, fsr2l, fsr2h, status,2, status,0, tblptrl, tblptrh, tblptru, cstack
  1164 ;; Tracked objects:
  1165 ;;		On entry : 0/0
  1166 ;;		On exit  : 0/0
  1167 ;;		Unchanged: 0/0
  1168 ;; Data sizes:     COMRAM   BANK0   BANK1   BANK2   BANK3   BANK4   BANK5
  1169 ;;      Params:         2       0       0       0       0       0       0
  1170 ;;      Locals:         0       0       0       0       0       0       0
  1171 ;;      Temps:          0       0       0       0       0       0       0
  1172 ;;      Totals:         2       0       0       0       0       0       0
  1173 ;;Total ram usage:        2 bytes
  1174 ;; Hardware stack levels used:    1
  1175 ;; Hardware stack levels required when called:    5
  1176 ;; This function calls:
  1177 ;;		_lcd_send
  1178 ;; This function is called by:
  1179 ;;		_lcd_print_xy
  1180 ;; This function uses a non-reentrant model
  1181 ;;
  1182                           
  1183                           	psect	text2
  1184  0004BA                     __ptext2:
  1185                           	opt callstack 0
  1186  0004BA                     _lcd_print:
  1187                           	opt callstack 24
  1188  0004BA                     l3338:
  1189                           
  1190                           ;modules/lcd/lcd.c: 78: void lcd_print(const char *str);modules/lcd/lcd.c: 79: {;modules
      +                          /lcd/lcd.c: 80:     while(*str!='\0')
  1191  0004BA  EFB7  F002         	goto	l3356
  1192  0004BE                     l3340:
  1193                           
  1194                           ;modules/lcd/lcd.c: 81:     {;modules/lcd/lcd.c: 82:   if (*str=='\r')
  1195  0004BE  C040  FFF6         	movff	lcd_print@str,tblptrl
  1196  0004C2  C041  FFF7         	movff	lcd_print@str+1,tblptrh
  1197  0004C6  6AF8               	clrf	tblptru,c
  1198  0004C8  0E05               	movlw	(high __ramtop+-1)
  1199  0004CA  64F7               	cpfsgt	tblptrh,c
  1200  0004CC  D003               	bra	u2547
  1201  0004CE  0008               	tblrd		*
  1202  0004D0  50F5               	movf	tablat,w,c
  1203  0004D2  D005               	bra	u2540
  1204  0004D4                     u2547:
  1205  0004D4  CFF6 FFE9          	movff	tblptrl,fsr0l
  1206  0004D8  CFF7 FFEA          	movff	tblptrh,fsr0h
  1207  0004DC  50EF               	movf	indf0,w,c
  1208  0004DE                     u2540:
  1209  0004DE  0A0D               	xorlw	13
  1210  0004E0  A4D8               	btfss	status,2,c
  1211  0004E2  EF75  F002         	goto	u2551
  1212  0004E6  EF77  F002         	goto	u2550
  1213  0004EA                     u2551:
  1214  0004EA  EF80  F002         	goto	l3346
  1215  0004EE                     u2550:
  1216  0004EE                     
  1217                           ;modules/lcd/lcd.c: 83:   {;modules/lcd/lcd.c: 84:    lcd_send(' ',1);
  1218  0004EE  0E01               	movlw	1
  1219  0004F0  6E3C               	movwf	lcd_send@rs_pin^0,c
  1220  0004F2  0E20               	movlw	32
  1221  0004F4  ECD5  F003         	call	_lcd_send
  1222  0004F8                     
  1223                           ;modules/lcd/lcd.c: 85:    str++;
  1224  0004F8  4A40               	infsnz	lcd_print@str^0,f,c
  1225  0004FA  2A41               	incf	(lcd_print@str+1)^0,f,c
  1226                           
  1227                           ;modules/lcd/lcd.c: 86:   }
  1228  0004FC  EFB7  F002         	goto	l3356
  1229  000500                     l3346:
  1230  000500  C040  FFF6         	movff	lcd_print@str,tblptrl
  1231  000504  C041  FFF7         	movff	lcd_print@str+1,tblptrh
  1232  000508  6AF8               	clrf	tblptru,c
  1233  00050A  0E05               	movlw	(high __ramtop+-1)
  1234  00050C  64F7               	cpfsgt	tblptrh,c
  1235  00050E  D003               	bra	u2567
  1236  000510  0008               	tblrd		*
  1237  000512  50F5               	movf	tablat,w,c
  1238  000514  D005               	bra	u2560
  1239  000516                     u2567:
  1240  000516  CFF6 FFE9          	movff	tblptrl,fsr0l
  1241  00051A  CFF7 FFEA          	movff	tblptrh,fsr0h
  1242  00051E  50EF               	movf	indf0,w,c
  1243  000520                     u2560:
  1244  000520  0A0A               	xorlw	10
  1245  000522  A4D8               	btfss	status,2,c
  1246  000524  EF96  F002         	goto	u2571
  1247  000528  EF98  F002         	goto	u2570
  1248  00052C                     u2571:
  1249  00052C  EFA1  F002         	goto	l3352
  1250  000530                     u2570:
  1251  000530                     
  1252                           ;modules/lcd/lcd.c: 88:   {;modules/lcd/lcd.c: 90:    lcd_send(' ',1);
  1253  000530  0E01               	movlw	1
  1254  000532  6E3C               	movwf	lcd_send@rs_pin^0,c
  1255  000534  0E20               	movlw	32
  1256  000536  ECD5  F003         	call	_lcd_send
  1257  00053A                     l3350:
  1258                           
  1259                           ;modules/lcd/lcd.c: 91:             str++;
  1260  00053A  4A40               	infsnz	lcd_print@str^0,f,c
  1261  00053C  2A41               	incf	(lcd_print@str+1)^0,f,c
  1262                           
  1263                           ;modules/lcd/lcd.c: 92:   }
  1264  00053E  EF5D  F002         	goto	l3338
  1265  000542                     l3352:
  1266                           
  1267                           ;modules/lcd/lcd.c: 94:   {;modules/lcd/lcd.c: 95:    lcd_send(*str++,1);
  1268  000542  0E01               	movlw	1
  1269  000544  6E3C               	movwf	lcd_send@rs_pin^0,c
  1270  000546  C040  FFF6         	movff	lcd_print@str,tblptrl
  1271  00054A  C041  FFF7         	movff	lcd_print@str+1,tblptrh
  1272  00054E  6AF8               	clrf	tblptru,c
  1273  000550  0E05               	movlw	(high __ramtop+-1)
  1274  000552  64F7               	cpfsgt	tblptrh,c
  1275  000554  D003               	bra	u2587
  1276  000556  0008               	tblrd		*
  1277  000558  50F5               	movf	tablat,w,c
  1278  00055A  D005               	bra	u2580
  1279  00055C                     u2587:
  1280  00055C  CFF6 FFE9          	movff	tblptrl,fsr0l
  1281  000560  CFF7 FFEA          	movff	tblptrh,fsr0h
  1282  000564  50EF               	movf	indf0,w,c
  1283  000566                     u2580:
  1284  000566  ECD5  F003         	call	_lcd_send
  1285  00056A  EF9D  F002         	goto	l3350
  1286  00056E                     l3356:
  1287                           
  1288                           ;modules/lcd/lcd.c: 80:     while(*str!='\0')
  1289  00056E  C040  FFF6         	movff	lcd_print@str,tblptrl
  1290  000572  C041  FFF7         	movff	lcd_print@str+1,tblptrh
  1291  000576  6AF8               	clrf	tblptru,c
  1292  000578  0E05               	movlw	(high __ramtop+-1)
  1293  00057A  64F7               	cpfsgt	tblptrh,c
  1294  00057C  D003               	bra	u2597
  1295  00057E  0008               	tblrd		*
  1296  000580  50F5               	movf	tablat,w,c
  1297  000582  D005               	bra	u2590
  1298  000584                     u2597:
  1299  000584  CFF6 FFE9          	movff	tblptrl,fsr0l
  1300  000588  CFF7 FFEA          	movff	tblptrh,fsr0h
  1301  00058C  50EF               	movf	indf0,w,c
  1302  00058E                     u2590:
  1303  00058E  0900               	iorlw	0
  1304  000590  A4D8               	btfss	status,2,c
  1305  000592  EFCD  F002         	goto	u2601
  1306  000596  EFCF  F002         	goto	u2600
  1307  00059A                     u2601:
  1308  00059A  EF5F  F002         	goto	l3340
  1309  00059E                     u2600:
  1310  00059E  0012               	return		;funcret
  1311  0005A0                     __end_of_lcd_print:
  1312                           	opt callstack 0
  1313                           
  1314 ;; *************** function _lcd_goto_xy *****************
  1315 ;; Defined at:
  1316 ;;		line 105 in file "modules/lcd/lcd.c"
  1317 ;; Parameters:    Size  Location     Type
  1318 ;;  x               1    wreg     unsigned char 
  1319 ;;  y               1   17[COMRAM] unsigned char 
  1320 ;; Auto vars:     Size  Location     Type
  1321 ;;  x               1   18[COMRAM] unsigned char 
  1322 ;; Return value:  Size  Location     Type
  1323 ;;                  1    wreg      void 
  1324 ;; Registers used:
  1325 ;;		wreg, fsr2l, fsr2h, status,2, status,0, cstack
  1326 ;; Tracked objects:
  1327 ;;		On entry : 0/0
  1328 ;;		On exit  : 0/0
  1329 ;;		Unchanged: 0/0
  1330 ;; Data sizes:     COMRAM   BANK0   BANK1   BANK2   BANK3   BANK4   BANK5
  1331 ;;      Params:         1       0       0       0       0       0       0
  1332 ;;      Locals:         1       0       0       0       0       0       0
  1333 ;;      Temps:          0       0       0       0       0       0       0
  1334 ;;      Totals:         2       0       0       0       0       0       0
  1335 ;;Total ram usage:        2 bytes
  1336 ;; Hardware stack levels used:    1
  1337 ;; Hardware stack levels required when called:    5
  1338 ;; This function calls:
  1339 ;;		_lcd_send
  1340 ;; This function is called by:
  1341 ;;		_lcd_print_xy
  1342 ;; This function uses a non-reentrant model
  1343 ;;
  1344                           
  1345                           	psect	text3
  1346  000964                     __ptext3:
  1347                           	opt callstack 0
  1348  000964                     _lcd_goto_xy:
  1349                           	opt callstack 24
  1350                           
  1351                           ;incstack = 0
  1352                           ;lcd_goto_xy@x stored from wreg
  1353  000964  6E41               	movwf	lcd_goto_xy@x^0,c
  1354  000966                     
  1355                           ;modules/lcd/lcd.c: 105: void lcd_goto_xy(unsigned char x,unsigned char y);modules/lcd/l
      +                          cd.c: 106: {;modules/lcd/lcd.c: 107:     if(y==0)
  1356  000966  5040               	movf	lcd_goto_xy@y^0,w,c
  1357  000968  A4D8               	btfss	status,2,c
  1358  00096A  EFB9  F004         	goto	u2611
  1359  00096E  EFBB  F004         	goto	u2610
  1360  000972                     u2611:
  1361  000972  EFC3  F004         	goto	l3362
  1362  000976                     u2610:
  1363  000976                     
  1364                           ;modules/lcd/lcd.c: 108:       lcd_send(0x80+x,0);
  1365  000976  0E00               	movlw	0
  1366  000978  6E3C               	movwf	lcd_send@rs_pin^0,c
  1367  00097A  5041               	movf	lcd_goto_xy@x^0,w,c
  1368  00097C  0F80               	addlw	128
  1369  00097E  ECD5  F003         	call	_lcd_send
  1370  000982  EFD1  F004         	goto	l726
  1371  000986                     l3362:
  1372  000986  0440               	decf	lcd_goto_xy@y^0,w,c
  1373  000988  A4D8               	btfss	status,2,c
  1374  00098A  EFC9  F004         	goto	u2621
  1375  00098E  EFCB  F004         	goto	u2620
  1376  000992                     u2621:
  1377  000992  EFD1  F004         	goto	l726
  1378  000996                     u2620:
  1379  000996                     
  1380                           ;modules/lcd/lcd.c: 110:       lcd_send(0xC0+x,0);
  1381  000996  0E00               	movlw	0
  1382  000998  6E3C               	movwf	lcd_send@rs_pin^0,c
  1383  00099A  5041               	movf	lcd_goto_xy@x^0,w,c
  1384  00099C  0FC0               	addlw	192
  1385  00099E  ECD5  F003         	call	_lcd_send
  1386  0009A2                     l726:
  1387  0009A2  0012               	return		;funcret
  1388  0009A4                     __end_of_lcd_goto_xy:
  1389                           	opt callstack 0
  1390                           
  1391 ;; *************** function _lcd_init *****************
  1392 ;; Defined at:
  1393 ;;		line 10 in file "modules/lcd/lcd.c"
  1394 ;; Parameters:    Size  Location     Type
  1395 ;;  d4              2   17[COMRAM] int 
  1396 ;;  d5              2   19[COMRAM] int 
  1397 ;;  d6              2   21[COMRAM] int 
  1398 ;;  d7              2   23[COMRAM] int 
  1399 ;;  rs              2   25[COMRAM] int 
  1400 ;;  en              2   27[COMRAM] int 
  1401 ;; Auto vars:     Size  Location     Type
  1402 ;;  i               1   29[COMRAM] unsigned char 
  1403 ;; Return value:  Size  Location     Type
  1404 ;;                  1    wreg      void 
  1405 ;; Registers used:
  1406 ;;		wreg, fsr2l, fsr2h, status,2, status,0, cstack
  1407 ;; Tracked objects:
  1408 ;;		On entry : 0/0
  1409 ;;		On exit  : 0/0
  1410 ;;		Unchanged: 0/0
  1411 ;; Data sizes:     COMRAM   BANK0   BANK1   BANK2   BANK3   BANK4   BANK5
  1412 ;;      Params:        12       0       0       0       0       0       0
  1413 ;;      Locals:         1       0       0       0       0       0       0
  1414 ;;      Temps:          0       0       0       0       0       0       0
  1415 ;;      Totals:        13       0       0       0       0       0       0
  1416 ;;Total ram usage:       13 bytes
  1417 ;; Hardware stack levels used:    1
  1418 ;; Hardware stack levels required when called:    5
  1419 ;; This function calls:
  1420 ;;		_gpio_pin_mode
  1421 ;;		_lcd_send
  1422 ;; This function is called by:
  1423 ;;		_main
  1424 ;;		_gsm_test
  1425 ;;		_hcsr04_test
  1426 ;;		_lcd_test
  1427 ;;		_adc_test
  1428 ;;		_system_tick_test
  1429 ;;		_rtc_test
  1430 ;; This function uses a non-reentrant model
  1431 ;;
  1432                           
  1433                           	psect	text4
  1434  00070A                     __ptext4:
  1435                           	opt callstack 0
  1436  00070A                     _lcd_init:
  1437                           	opt callstack 25
  1438  00070A                     
  1439                           ;modules/lcd/lcd.c: 10: void lcd_init(int d4,int d5,int d6,int d7,int rs,int en);modules
      +                          /lcd/lcd.c: 11: {;modules/lcd/lcd.c: 12:     uint8_t i;;modules/lcd/lcd.c: 13:     lcd_d
      +                          ata_pins[0]=d4;
  1440  00070A  C040  F026         	movff	lcd_init@d4,_lcd_data_pins
  1441                           
  1442                           ;modules/lcd/lcd.c: 14:  lcd_data_pins[1]=d5;
  1443  00070E  C042  F027         	movff	lcd_init@d5,_lcd_data_pins+1
  1444                           
  1445                           ;modules/lcd/lcd.c: 15:  lcd_data_pins[2]=d6;
  1446  000712  C044  F028         	movff	lcd_init@d6,_lcd_data_pins+2
  1447                           
  1448                           ;modules/lcd/lcd.c: 16:  lcd_data_pins[3]=d7;
  1449  000716  C046  F029         	movff	lcd_init@d7,_lcd_data_pins+3
  1450                           
  1451                           ;modules/lcd/lcd.c: 17:  RS=rs;
  1452  00071A  C048  F056         	movff	lcd_init@rs,_RS
  1453                           
  1454                           ;modules/lcd/lcd.c: 18:  EN=en;
  1455  00071E  C04A  F055         	movff	lcd_init@en,_EN
  1456  000722                     
  1457                           ;modules/lcd/lcd.c: 19:     for (i=0;i<4;i++)
  1458  000722  0E00               	movlw	0
  1459  000724  6E4C               	movwf	lcd_init@i^0,c
  1460  000726                     l3464:
  1461                           
  1462                           ;modules/lcd/lcd.c: 20:     {;modules/lcd/lcd.c: 21:         gpio_pin_mode(lcd_data_pins
      +                          [i],0);
  1463  000726  0E00               	movlw	0
  1464  000728  6E34               	movwf	gpio_pin_mode@mode^0,c
  1465  00072A  0E26               	movlw	low _lcd_data_pins
  1466  00072C  244C               	addwf	lcd_init@i^0,w,c
  1467  00072E  6ED9               	movwf	fsr2l,c
  1468  000730  6ADA               	clrf	fsr2h,c
  1469  000732  0E00               	movlw	high _lcd_data_pins
  1470  000734  22DA               	addwfc	fsr2h,f,c
  1471  000736  50DF               	movf	indf2,w,c
  1472  000738  EC38  F001         	call	_gpio_pin_mode
  1473  00073C                     
  1474                           ;modules/lcd/lcd.c: 22:     }
  1475  00073C  2A4C               	incf	lcd_init@i^0,f,c
  1476  00073E  0E03               	movlw	3
  1477  000740  644C               	cpfsgt	lcd_init@i^0,c
  1478  000742  EFA5  F003         	goto	u2641
  1479  000746  EFA7  F003         	goto	u2640
  1480  00074A                     u2641:
  1481  00074A  EF93  F003         	goto	l3464
  1482  00074E                     u2640:
  1483  00074E                     
  1484                           ;modules/lcd/lcd.c: 24:         gpio_pin_mode(RS,0);
  1485  00074E  0E00               	movlw	0
  1486  000750  6E34               	movwf	gpio_pin_mode@mode^0,c
  1487  000752  5056               	movf	_RS^0,w,c
  1488  000754  EC38  F001         	call	_gpio_pin_mode
  1489                           
  1490                           ;modules/lcd/lcd.c: 25:         gpio_pin_mode(EN,0);
  1491  000758  0E00               	movlw	0
  1492  00075A  6E34               	movwf	gpio_pin_mode@mode^0,c
  1493  00075C  5055               	movf	_EN^0,w,c
  1494  00075E  EC38  F001         	call	_gpio_pin_mode
  1495  000762                     
  1496                           ;modules/lcd/lcd.c: 27:     lcd_send(0x03,0);
  1497  000762  0E00               	movlw	0
  1498  000764  6E3C               	movwf	lcd_send@rs_pin^0,c
  1499  000766  0E03               	movlw	3
  1500  000768  ECD5  F003         	call	_lcd_send
  1501  00076C                     
  1502                           ;modules/lcd/lcd.c: 28:     lcd_send(0x02,0);
  1503  00076C  0E00               	movlw	0
  1504  00076E  6E3C               	movwf	lcd_send@rs_pin^0,c
  1505  000770  0E02               	movlw	2
  1506  000772  ECD5  F003         	call	_lcd_send
  1507  000776                     
  1508                           ;modules/lcd/lcd.c: 29:     lcd_send(0x28,0);
  1509  000776  0E00               	movlw	0
  1510  000778  6E3C               	movwf	lcd_send@rs_pin^0,c
  1511  00077A  0E28               	movlw	40
  1512  00077C  ECD5  F003         	call	_lcd_send
  1513  000780                     
  1514                           ;modules/lcd/lcd.c: 30:     lcd_send(0x0C,0);
  1515  000780  0E00               	movlw	0
  1516  000782  6E3C               	movwf	lcd_send@rs_pin^0,c
  1517  000784  0E0C               	movlw	12
  1518  000786  ECD5  F003         	call	_lcd_send
  1519  00078A                     
  1520                           ;modules/lcd/lcd.c: 31:     lcd_send(0x01,0);
  1521  00078A  0E00               	movlw	0
  1522  00078C  6E3C               	movwf	lcd_send@rs_pin^0,c
  1523  00078E  0E01               	movlw	1
  1524  000790  ECD5  F003         	call	_lcd_send
  1525  000794                     
  1526                           ;modules/lcd/lcd.c: 32:     lcd_send(0x06,0);
  1527  000794  0E00               	movlw	0
  1528  000796  6E3C               	movwf	lcd_send@rs_pin^0,c
  1529  000798  0E06               	movlw	6
  1530  00079A  ECD5  F003         	call	_lcd_send
  1531  00079E                     
  1532                           ;modules/lcd/lcd.c: 33:     lcd_send(0x80,0);
  1533  00079E  0E00               	movlw	0
  1534  0007A0  6E3C               	movwf	lcd_send@rs_pin^0,c
  1535  0007A2  0E80               	movlw	128
  1536  0007A4  ECD5  F003         	call	_lcd_send
  1537  0007A8  0012               	return		;funcret
  1538  0007AA                     __end_of_lcd_init:
  1539                           	opt callstack 0
  1540                           
  1541 ;; *************** function _gpio_pin_mode *****************
  1542 ;; Defined at:
  1543 ;;		line 4 in file "lib/gpio/gpio.c"
  1544 ;; Parameters:    Size  Location     Type
  1545 ;;  pin             1    wreg     unsigned char 
  1546 ;;  mode            1    5[COMRAM] unsigned char 
  1547 ;; Auto vars:     Size  Location     Type
  1548 ;;  pin             1    8[COMRAM] unsigned char 
  1549 ;; Return value:  Size  Location     Type
  1550 ;;                  1    wreg      void 
  1551 ;; Registers used:
  1552 ;;		wreg, status,2, status,0
  1553 ;; Tracked objects:
  1554 ;;		On entry : 0/0
  1555 ;;		On exit  : 0/0
  1556 ;;		Unchanged: 0/0
  1557 ;; Data sizes:     COMRAM   BANK0   BANK1   BANK2   BANK3   BANK4   BANK5
  1558 ;;      Params:         1       0       0       0       0       0       0
  1559 ;;      Locals:         1       0       0       0       0       0       0
  1560 ;;      Temps:          2       0       0       0       0       0       0
  1561 ;;      Totals:         4       0       0       0       0       0       0
  1562 ;;Total ram usage:        4 bytes
  1563 ;; Hardware stack levels used:    1
  1564 ;; Hardware stack levels required when called:    2
  1565 ;; This function calls:
  1566 ;;		Nothing
  1567 ;; This function is called by:
  1568 ;;		_lcd_init
  1569 ;;		_main
  1570 ;;		_dht_readSensor
  1571 ;;		_HCSR04_init
  1572 ;;		_io_test
  1573 ;; This function uses a non-reentrant model
  1574 ;;
  1575                           
  1576                           	psect	text5
  1577  000270                     __ptext5:
  1578                           	opt callstack 0
  1579  000270                     _gpio_pin_mode:
  1580                           	opt callstack 27
  1581                           
  1582                           ;incstack = 0
  1583                           ;gpio_pin_mode@pin stored from wreg
  1584  000270  6E37               	movwf	gpio_pin_mode@pin^0,c
  1585  000272                     
  1586                           ;lib/gpio/gpio.c: 4: void gpio_pin_mode(unsigned char pin,unsigned char mode);lib/gpio/g
      +                          pio.c: 5: {;lib/gpio/gpio.c: 6:     if (pin < 8)
  1587  000272  0E08               	movlw	8
  1588  000274  6037               	cpfslt	gpio_pin_mode@pin^0,c
  1589  000276  EF3F  F001         	goto	u2151
  1590  00027A  EF41  F001         	goto	u2150
  1591  00027E                     u2151:
  1592  00027E  EF72  F001         	goto	l3188
  1593  000282                     u2150:
  1594  000282                     
  1595                           ;lib/gpio/gpio.c: 7:  {;lib/gpio/gpio.c: 8:   if (mode==0)
  1596  000282  5034               	movf	gpio_pin_mode@mode^0,w,c
  1597  000284  A4D8               	btfss	status,2,c
  1598  000286  EF47  F001         	goto	u2161
  1599  00028A  EF49  F001         	goto	u2160
  1600  00028E                     u2161:
  1601  00028E  EF5A  F001         	goto	l3184
  1602  000292                     u2160:
  1603  000292                     
  1604                           ;lib/gpio/gpio.c: 9:   {;lib/gpio/gpio.c: 10:    TRISB &=~(1<<pin);
  1605  000292  C037  F035         	movff	gpio_pin_mode@pin,??_gpio_pin_mode
  1606  000296  0E01               	movlw	1
  1607  000298  6E36               	movwf	(??_gpio_pin_mode+1)^0,c
  1608  00029A  2A35               	incf	??_gpio_pin_mode^0,f,c
  1609  00029C  EF52  F001         	goto	u2174
  1610  0002A0                     u2175:
  1611  0002A0  90D8               	bcf	status,0,c
  1612  0002A2  3636               	rlcf	(??_gpio_pin_mode+1)^0,f,c
  1613  0002A4                     u2174:
  1614  0002A4  2E35               	decfsz	??_gpio_pin_mode^0,f,c
  1615  0002A6  EF50  F001         	goto	u2175
  1616  0002AA  5036               	movf	(??_gpio_pin_mode+1)^0,w,c
  1617  0002AC  0AFF               	xorlw	255
  1618  0002AE  1693               	andwf	147,f,c	;volatile
  1619                           
  1620                           ;lib/gpio/gpio.c: 11:   }
  1621  0002B0  EF5C  F002         	goto	l152
  1622  0002B4                     l3184:
  1623  0002B4  0434               	decf	gpio_pin_mode@mode^0,w,c
  1624  0002B6  A4D8               	btfss	status,2,c
  1625  0002B8  EF60  F001         	goto	u2181
  1626  0002BC  EF62  F001         	goto	u2180
  1627  0002C0                     u2181:
  1628  0002C0  EF5C  F002         	goto	l152
  1629  0002C4                     u2180:
  1630  0002C4                     
  1631                           ;lib/gpio/gpio.c: 13:   {;lib/gpio/gpio.c: 14:             TRISB |=(1<<pin);
  1632  0002C4  C037  F035         	movff	gpio_pin_mode@pin,??_gpio_pin_mode
  1633  0002C8  0E01               	movlw	1
  1634  0002CA  6E36               	movwf	(??_gpio_pin_mode+1)^0,c
  1635  0002CC  2A35               	incf	??_gpio_pin_mode^0,f,c
  1636  0002CE  EF6B  F001         	goto	u2194
  1637  0002D2                     u2195:
  1638  0002D2  90D8               	bcf	status,0,c
  1639  0002D4  3636               	rlcf	(??_gpio_pin_mode+1)^0,f,c
  1640  0002D6                     u2194:
  1641  0002D6  2E35               	decfsz	??_gpio_pin_mode^0,f,c
  1642  0002D8  EF69  F001         	goto	u2195
  1643  0002DC  5036               	movf	(??_gpio_pin_mode+1)^0,w,c
  1644  0002DE  1293               	iorwf	147,f,c	;volatile
  1645  0002E0  EF5C  F002         	goto	l152
  1646  0002E4                     l3188:
  1647  0002E4  0E10               	movlw	16
  1648  0002E6  6037               	cpfslt	gpio_pin_mode@pin^0,c
  1649  0002E8  EF78  F001         	goto	u2201
  1650  0002EC  EF7A  F001         	goto	u2200
  1651  0002F0                     u2201:
  1652  0002F0  EFAD  F001         	goto	l3200
  1653  0002F4                     u2200:
  1654  0002F4                     
  1655                           ;lib/gpio/gpio.c: 18:  {;lib/gpio/gpio.c: 19:   pin-=8;
  1656  0002F4  0E08               	movlw	8
  1657  0002F6  5E37               	subwf	gpio_pin_mode@pin^0,f,c
  1658  0002F8                     
  1659                           ;lib/gpio/gpio.c: 20:   if (mode==0)
  1660  0002F8  5034               	movf	gpio_pin_mode@mode^0,w,c
  1661  0002FA  A4D8               	btfss	status,2,c
  1662  0002FC  EF82  F001         	goto	u2211
  1663  000300  EF84  F001         	goto	u2210
  1664  000304                     u2211:
  1665  000304  EF95  F001         	goto	l3196
  1666  000308                     u2210:
  1667  000308                     
  1668                           ;lib/gpio/gpio.c: 21:   {;lib/gpio/gpio.c: 22:    TRISD &=~(1<<pin);
  1669  000308  C037  F035         	movff	gpio_pin_mode@pin,??_gpio_pin_mode
  1670  00030C  0E01               	movlw	1
  1671  00030E  6E36               	movwf	(??_gpio_pin_mode+1)^0,c
  1672  000310  2A35               	incf	??_gpio_pin_mode^0,f,c
  1673  000312  EF8D  F001         	goto	u2224
  1674  000316                     u2225:
  1675  000316  90D8               	bcf	status,0,c
  1676  000318  3636               	rlcf	(??_gpio_pin_mode+1)^0,f,c
  1677  00031A                     u2224:
  1678  00031A  2E35               	decfsz	??_gpio_pin_mode^0,f,c
  1679  00031C  EF8B  F001         	goto	u2225
  1680  000320  5036               	movf	(??_gpio_pin_mode+1)^0,w,c
  1681  000322  0AFF               	xorlw	255
  1682  000324  1695               	andwf	149,f,c	;volatile
  1683                           
  1684                           ;lib/gpio/gpio.c: 23:   }
  1685  000326  EF5C  F002         	goto	l152
  1686  00032A                     l3196:
  1687  00032A  0434               	decf	gpio_pin_mode@mode^0,w,c
  1688  00032C  A4D8               	btfss	status,2,c
  1689  00032E  EF9B  F001         	goto	u2231
  1690  000332  EF9D  F001         	goto	u2230
  1691  000336                     u2231:
  1692  000336  EF5C  F002         	goto	l152
  1693  00033A                     u2230:
  1694  00033A                     
  1695                           ;lib/gpio/gpio.c: 25:   {;lib/gpio/gpio.c: 26:    TRISD|=(1<<pin);
  1696  00033A  C037  F035         	movff	gpio_pin_mode@pin,??_gpio_pin_mode
  1697  00033E  0E01               	movlw	1
  1698  000340  6E36               	movwf	(??_gpio_pin_mode+1)^0,c
  1699  000342  2A35               	incf	??_gpio_pin_mode^0,f,c
  1700  000344  EFA6  F001         	goto	u2244
  1701  000348                     u2245:
  1702  000348  90D8               	bcf	status,0,c
  1703  00034A  3636               	rlcf	(??_gpio_pin_mode+1)^0,f,c
  1704  00034C                     u2244:
  1705  00034C  2E35               	decfsz	??_gpio_pin_mode^0,f,c
  1706  00034E  EFA4  F001         	goto	u2245
  1707  000352  5036               	movf	(??_gpio_pin_mode+1)^0,w,c
  1708  000354  1295               	iorwf	149,f,c	;volatile
  1709  000356  EF5C  F002         	goto	l152
  1710  00035A                     l3200:
  1711  00035A  0E18               	movlw	24
  1712  00035C  6037               	cpfslt	gpio_pin_mode@pin^0,c
  1713  00035E  EFB3  F001         	goto	u2251
  1714  000362  EFB5  F001         	goto	u2250
  1715  000366                     u2251:
  1716  000366  EFE8  F001         	goto	l3212
  1717  00036A                     u2250:
  1718  00036A                     
  1719                           ;lib/gpio/gpio.c: 30:  {;lib/gpio/gpio.c: 31:   pin-=16;
  1720  00036A  0E10               	movlw	16
  1721  00036C  5E37               	subwf	gpio_pin_mode@pin^0,f,c
  1722  00036E                     
  1723                           ;lib/gpio/gpio.c: 32:   if (mode==0)
  1724  00036E  5034               	movf	gpio_pin_mode@mode^0,w,c
  1725  000370  A4D8               	btfss	status,2,c
  1726  000372  EFBD  F001         	goto	u2261
  1727  000376  EFBF  F001         	goto	u2260
  1728  00037A                     u2261:
  1729  00037A  EFD0  F001         	goto	l3208
  1730  00037E                     u2260:
  1731  00037E                     
  1732                           ;lib/gpio/gpio.c: 33:   {;lib/gpio/gpio.c: 34:    TRISC &=~(1<<pin);
  1733  00037E  C037  F035         	movff	gpio_pin_mode@pin,??_gpio_pin_mode
  1734  000382  0E01               	movlw	1
  1735  000384  6E36               	movwf	(??_gpio_pin_mode+1)^0,c
  1736  000386  2A35               	incf	??_gpio_pin_mode^0,f,c
  1737  000388  EFC8  F001         	goto	u2274
  1738  00038C                     u2275:
  1739  00038C  90D8               	bcf	status,0,c
  1740  00038E  3636               	rlcf	(??_gpio_pin_mode+1)^0,f,c
  1741  000390                     u2274:
  1742  000390  2E35               	decfsz	??_gpio_pin_mode^0,f,c
  1743  000392  EFC6  F001         	goto	u2275
  1744  000396  5036               	movf	(??_gpio_pin_mode+1)^0,w,c
  1745  000398  0AFF               	xorlw	255
  1746  00039A  1694               	andwf	148,f,c	;volatile
  1747                           
  1748                           ;lib/gpio/gpio.c: 35:   }
  1749  00039C  EF5C  F002         	goto	l152
  1750  0003A0                     l3208:
  1751  0003A0  0434               	decf	gpio_pin_mode@mode^0,w,c
  1752  0003A2  A4D8               	btfss	status,2,c
  1753  0003A4  EFD6  F001         	goto	u2281
  1754  0003A8  EFD8  F001         	goto	u2280
  1755  0003AC                     u2281:
  1756  0003AC  EF5C  F002         	goto	l152
  1757  0003B0                     u2280:
  1758  0003B0                     
  1759                           ;lib/gpio/gpio.c: 37:   {;lib/gpio/gpio.c: 38:    TRISC|=(1<<pin);
  1760  0003B0  C037  F035         	movff	gpio_pin_mode@pin,??_gpio_pin_mode
  1761  0003B4  0E01               	movlw	1
  1762  0003B6  6E36               	movwf	(??_gpio_pin_mode+1)^0,c
  1763  0003B8  2A35               	incf	??_gpio_pin_mode^0,f,c
  1764  0003BA  EFE1  F001         	goto	u2294
  1765  0003BE                     u2295:
  1766  0003BE  90D8               	bcf	status,0,c
  1767  0003C0  3636               	rlcf	(??_gpio_pin_mode+1)^0,f,c
  1768  0003C2                     u2294:
  1769  0003C2  2E35               	decfsz	??_gpio_pin_mode^0,f,c
  1770  0003C4  EFDF  F001         	goto	u2295
  1771  0003C8  5036               	movf	(??_gpio_pin_mode+1)^0,w,c
  1772  0003CA  1294               	iorwf	148,f,c	;volatile
  1773  0003CC  EF5C  F002         	goto	l152
  1774  0003D0                     l3212:
  1775  0003D0  0E1E               	movlw	30
  1776  0003D2  6037               	cpfslt	gpio_pin_mode@pin^0,c
  1777  0003D4  EFEE  F001         	goto	u2301
  1778  0003D8  EFF0  F001         	goto	u2300
  1779  0003DC                     u2301:
  1780  0003DC  EF23  F002         	goto	l3224
  1781  0003E0                     u2300:
  1782  0003E0                     
  1783                           ;lib/gpio/gpio.c: 42:  {;lib/gpio/gpio.c: 43:   pin-=24;
  1784  0003E0  0E18               	movlw	24
  1785  0003E2  5E37               	subwf	gpio_pin_mode@pin^0,f,c
  1786  0003E4                     
  1787                           ;lib/gpio/gpio.c: 44:   if (mode==0)
  1788  0003E4  5034               	movf	gpio_pin_mode@mode^0,w,c
  1789  0003E6  A4D8               	btfss	status,2,c
  1790  0003E8  EFF8  F001         	goto	u2311
  1791  0003EC  EFFA  F001         	goto	u2310
  1792  0003F0                     u2311:
  1793  0003F0  EF0B  F002         	goto	l3220
  1794  0003F4                     u2310:
  1795  0003F4                     
  1796                           ;lib/gpio/gpio.c: 45:   {;lib/gpio/gpio.c: 46:    TRISA &=~(1<<pin);
  1797  0003F4  C037  F035         	movff	gpio_pin_mode@pin,??_gpio_pin_mode
  1798  0003F8  0E01               	movlw	1
  1799  0003FA  6E36               	movwf	(??_gpio_pin_mode+1)^0,c
  1800  0003FC  2A35               	incf	??_gpio_pin_mode^0,f,c
  1801  0003FE  EF03  F002         	goto	u2324
  1802  000402                     u2325:
  1803  000402  90D8               	bcf	status,0,c
  1804  000404  3636               	rlcf	(??_gpio_pin_mode+1)^0,f,c
  1805  000406                     u2324:
  1806  000406  2E35               	decfsz	??_gpio_pin_mode^0,f,c
  1807  000408  EF01  F002         	goto	u2325
  1808  00040C  5036               	movf	(??_gpio_pin_mode+1)^0,w,c
  1809  00040E  0AFF               	xorlw	255
  1810  000410  1692               	andwf	146,f,c	;volatile
  1811                           
  1812                           ;lib/gpio/gpio.c: 47:   }
  1813  000412  EF5C  F002         	goto	l152
  1814  000416                     l3220:
  1815  000416  0434               	decf	gpio_pin_mode@mode^0,w,c
  1816  000418  A4D8               	btfss	status,2,c
  1817  00041A  EF11  F002         	goto	u2331
  1818  00041E  EF13  F002         	goto	u2330
  1819  000422                     u2331:
  1820  000422  EF5C  F002         	goto	l152
  1821  000426                     u2330:
  1822  000426                     
  1823                           ;lib/gpio/gpio.c: 49:   {;lib/gpio/gpio.c: 50:    TRISA|=(1<<pin);
  1824  000426  C037  F035         	movff	gpio_pin_mode@pin,??_gpio_pin_mode
  1825  00042A  0E01               	movlw	1
  1826  00042C  6E36               	movwf	(??_gpio_pin_mode+1)^0,c
  1827  00042E  2A35               	incf	??_gpio_pin_mode^0,f,c
  1828  000430  EF1C  F002         	goto	u2344
  1829  000434                     u2345:
  1830  000434  90D8               	bcf	status,0,c
  1831  000436  3636               	rlcf	(??_gpio_pin_mode+1)^0,f,c
  1832  000438                     u2344:
  1833  000438  2E35               	decfsz	??_gpio_pin_mode^0,f,c
  1834  00043A  EF1A  F002         	goto	u2345
  1835  00043E  5036               	movf	(??_gpio_pin_mode+1)^0,w,c
  1836  000440  1292               	iorwf	146,f,c	;volatile
  1837  000442  EF5C  F002         	goto	l152
  1838  000446                     l3224:
  1839  000446  0E21               	movlw	33
  1840  000448  6037               	cpfslt	gpio_pin_mode@pin^0,c
  1841  00044A  EF29  F002         	goto	u2351
  1842  00044E  EF2B  F002         	goto	u2350
  1843  000452                     u2351:
  1844  000452  EF5C  F002         	goto	l152
  1845  000456                     u2350:
  1846  000456                     
  1847                           ;lib/gpio/gpio.c: 54:  {;lib/gpio/gpio.c: 55:   pin-=30;
  1848  000456  0E1E               	movlw	30
  1849  000458  5E37               	subwf	gpio_pin_mode@pin^0,f,c
  1850  00045A                     
  1851                           ;lib/gpio/gpio.c: 56:   if (mode==0)
  1852  00045A  5034               	movf	gpio_pin_mode@mode^0,w,c
  1853  00045C  A4D8               	btfss	status,2,c
  1854  00045E  EF33  F002         	goto	u2361
  1855  000462  EF35  F002         	goto	u2360
  1856  000466                     u2361:
  1857  000466  EF46  F002         	goto	l3232
  1858  00046A                     u2360:
  1859  00046A                     
  1860                           ;lib/gpio/gpio.c: 57:   {;lib/gpio/gpio.c: 58:    TRISE &=~(1<<pin);
  1861  00046A  C037  F035         	movff	gpio_pin_mode@pin,??_gpio_pin_mode
  1862  00046E  0E01               	movlw	1
  1863  000470  6E36               	movwf	(??_gpio_pin_mode+1)^0,c
  1864  000472  2A35               	incf	??_gpio_pin_mode^0,f,c
  1865  000474  EF3E  F002         	goto	u2374
  1866  000478                     u2375:
  1867  000478  90D8               	bcf	status,0,c
  1868  00047A  3636               	rlcf	(??_gpio_pin_mode+1)^0,f,c
  1869  00047C                     u2374:
  1870  00047C  2E35               	decfsz	??_gpio_pin_mode^0,f,c
  1871  00047E  EF3C  F002         	goto	u2375
  1872  000482  5036               	movf	(??_gpio_pin_mode+1)^0,w,c
  1873  000484  0AFF               	xorlw	255
  1874  000486  1696               	andwf	150,f,c	;volatile
  1875                           
  1876                           ;lib/gpio/gpio.c: 59:   }
  1877  000488  EF5C  F002         	goto	l152
  1878  00048C                     l3232:
  1879  00048C  0434               	decf	gpio_pin_mode@mode^0,w,c
  1880  00048E  A4D8               	btfss	status,2,c
  1881  000490  EF4C  F002         	goto	u2381
  1882  000494  EF4E  F002         	goto	u2380
  1883  000498                     u2381:
  1884  000498  EF5C  F002         	goto	l152
  1885  00049C                     u2380:
  1886  00049C                     
  1887                           ;lib/gpio/gpio.c: 61:   {;lib/gpio/gpio.c: 62:    TRISE|=(1<<pin);
  1888  00049C  C037  F035         	movff	gpio_pin_mode@pin,??_gpio_pin_mode
  1889  0004A0  0E01               	movlw	1
  1890  0004A2  6E36               	movwf	(??_gpio_pin_mode+1)^0,c
  1891  0004A4  2A35               	incf	??_gpio_pin_mode^0,f,c
  1892  0004A6  EF57  F002         	goto	u2394
  1893  0004AA                     u2395:
  1894  0004AA  90D8               	bcf	status,0,c
  1895  0004AC  3636               	rlcf	(??_gpio_pin_mode+1)^0,f,c
  1896  0004AE                     u2394:
  1897  0004AE  2E35               	decfsz	??_gpio_pin_mode^0,f,c
  1898  0004B0  EF55  F002         	goto	u2395
  1899  0004B4  5036               	movf	(??_gpio_pin_mode+1)^0,w,c
  1900  0004B6  1296               	iorwf	150,f,c	;volatile
  1901  0004B8                     l152:
  1902  0004B8  0012               	return		;funcret
  1903  0004BA                     __end_of_gpio_pin_mode:
  1904                           	opt callstack 0
  1905                           
  1906 ;; *************** function _lcd_clear *****************
  1907 ;; Defined at:
  1908 ;;		line 36 in file "modules/lcd/lcd.c"
  1909 ;; Parameters:    Size  Location     Type
  1910 ;;		None
  1911 ;; Auto vars:     Size  Location     Type
  1912 ;;		None
  1913 ;; Return value:  Size  Location     Type
  1914 ;;                  1    wreg      void 
  1915 ;; Registers used:
  1916 ;;		wreg, fsr2l, fsr2h, status,2, status,0, cstack
  1917 ;; Tracked objects:
  1918 ;;		On entry : 0/0
  1919 ;;		On exit  : 0/0
  1920 ;;		Unchanged: 0/0
  1921 ;; Data sizes:     COMRAM   BANK0   BANK1   BANK2   BANK3   BANK4   BANK5
  1922 ;;      Params:         0       0       0       0       0       0       0
  1923 ;;      Locals:         0       0       0       0       0       0       0
  1924 ;;      Temps:          0       0       0       0       0       0       0
  1925 ;;      Totals:         0       0       0       0       0       0       0
  1926 ;;Total ram usage:        0 bytes
  1927 ;; Hardware stack levels used:    1
  1928 ;; Hardware stack levels required when called:    5
  1929 ;; This function calls:
  1930 ;;		_lcd_send
  1931 ;; This function is called by:
  1932 ;;		_main
  1933 ;;		_debug
  1934 ;;		_gsm_test
  1935 ;;		_hcsr04_test
  1936 ;;		_lcd_test
  1937 ;;		_adc_test
  1938 ;;		_system_tick_test
  1939 ;;		_rtc_test
  1940 ;; This function uses a non-reentrant model
  1941 ;;
  1942                           
  1943                           	psect	text6
  1944  000A14                     __ptext6:
  1945                           	opt callstack 0
  1946  000A14                     _lcd_clear:
  1947                           	opt callstack 25
  1948  000A14                     
  1949                           ;modules/lcd/lcd.c: 38:     lcd_send(0x01,0);
  1950  000A14  0E00               	movlw	0
  1951  000A16  6E3C               	movwf	lcd_send@rs_pin^0,c
  1952  000A18  0E01               	movlw	1
  1953  000A1A  ECD5  F003         	call	_lcd_send
  1954                           
  1955                           ;modules/lcd/lcd.c: 39:     lcd_send(0x80,0);
  1956  000A1E  0E00               	movlw	0
  1957  000A20  6E3C               	movwf	lcd_send@rs_pin^0,c
  1958  000A22  0E80               	movlw	128
  1959  000A24  ECD5  F003         	call	_lcd_send
  1960  000A28  0012               	return		;funcret
  1961  000A2A                     __end_of_lcd_clear:
  1962                           	opt callstack 0
  1963                           
  1964 ;; *************** function _lcd_send *****************
  1965 ;; Defined at:
  1966 ;;		line 54 in file "modules/lcd/lcd.c"
  1967 ;; Parameters:    Size  Location     Type
  1968 ;;  byte            1    wreg     unsigned char 
  1969 ;;  rs_pin          1   13[COMRAM] unsigned char 
  1970 ;; Auto vars:     Size  Location     Type
  1971 ;;  byte            1   16[COMRAM] unsigned char 
  1972 ;;  low_nibble      1   15[COMRAM] unsigned char 
  1973 ;;  high_nibble     1   14[COMRAM] unsigned char 
  1974 ;; Return value:  Size  Location     Type
  1975 ;;                  1    wreg      void 
  1976 ;; Registers used:
  1977 ;;		wreg, fsr2l, fsr2h, status,2, status,0, cstack
  1978 ;; Tracked objects:
  1979 ;;		On entry : 0/0
  1980 ;;		On exit  : 0/0
  1981 ;;		Unchanged: 0/0
  1982 ;; Data sizes:     COMRAM   BANK0   BANK1   BANK2   BANK3   BANK4   BANK5
  1983 ;;      Params:         1       0       0       0       0       0       0
  1984 ;;      Locals:         3       0       0       0       0       0       0
  1985 ;;      Temps:          0       0       0       0       0       0       0
  1986 ;;      Totals:         4       0       0       0       0       0       0
  1987 ;;Total ram usage:        4 bytes
  1988 ;; Hardware stack levels used:    1
  1989 ;; Hardware stack levels required when called:    4
  1990 ;; This function calls:
  1991 ;;		_delay_ms
  1992 ;;		_gpio_pin_write
  1993 ;;		_lcd_nibble
  1994 ;; This function is called by:
  1995 ;;		_lcd_init
  1996 ;;		_lcd_clear
  1997 ;;		_lcd_print
  1998 ;;		_lcd_goto_xy
  1999 ;; This function uses a non-reentrant model
  2000 ;;
  2001                           
  2002                           	psect	text7
  2003  0007AA                     __ptext7:
  2004                           	opt callstack 0
  2005  0007AA                     _lcd_send:
  2006                           	opt callstack 24
  2007                           
  2008                           ;incstack = 0
  2009                           ;lcd_send@byte stored from wreg
  2010  0007AA  6E3F               	movwf	lcd_send@byte^0,c
  2011  0007AC  0E00               	movlw	0
  2012  0007AE  6E3E               	movwf	lcd_send@low_nibble^0,c
  2013  0007B0                     
  2014                           ;modules/lcd/lcd.c: 57:     high_nibble=byte >> 4;
  2015  0007B0  383F               	swapf	lcd_send@byte^0,w,c
  2016  0007B2  0B0F               	andlw	15
  2017  0007B4  6E3D               	movwf	lcd_send@high_nibble^0,c
  2018  0007B6                     
  2019                           ;modules/lcd/lcd.c: 58:     low_nibble=(byte & 0x0F);
  2020  0007B6  503F               	movf	lcd_send@byte^0,w,c
  2021  0007B8  0B0F               	andlw	15
  2022  0007BA  6E3E               	movwf	lcd_send@low_nibble^0,c
  2023  0007BC                     
  2024                           ;modules/lcd/lcd.c: 60:     delay_ms(3);
  2025  0007BC  0E00               	movlw	0
  2026  0007BE  6E35               	movwf	(delay_ms@d+1)^0,c
  2027  0007C0  0E03               	movlw	3
  2028  0007C2  6E34               	movwf	delay_ms@d^0,c
  2029  0007C4  ECD2  F004         	call	_delay_ms	;wreg free
  2030  0007C8                     
  2031                           ;modules/lcd/lcd.c: 61:     if(rs_pin==1)
  2032  0007C8  043C               	decf	lcd_send@rs_pin^0,w,c
  2033  0007CA  A4D8               	btfss	status,2,c
  2034  0007CC  EFEA  F003         	goto	u2141
  2035  0007D0  EFEC  F003         	goto	u2140
  2036  0007D4                     u2141:
  2037  0007D4  EFF3  F003         	goto	l3164
  2038  0007D8                     u2140:
  2039  0007D8                     
  2040                           ;modules/lcd/lcd.c: 62:       gpio_pin_write(RS, 1);
  2041  0007D8  0E01               	movlw	1
  2042  0007DA  6E34               	movwf	gpio_pin_write@bit_val^0,c
  2043  0007DC  5056               	movf	_RS^0,w,c
  2044  0007DE  EC09  F000         	call	_gpio_pin_write
  2045  0007E2  EFF8  F003         	goto	l3166
  2046  0007E6                     l3164:
  2047                           
  2048                           ;modules/lcd/lcd.c: 64:       gpio_pin_write(RS, 0);
  2049  0007E6  0E00               	movlw	0
  2050  0007E8  6E34               	movwf	gpio_pin_write@bit_val^0,c
  2051  0007EA  5056               	movf	_RS^0,w,c
  2052  0007EC  EC09  F000         	call	_gpio_pin_write
  2053  0007F0                     l3166:
  2054                           
  2055                           ;modules/lcd/lcd.c: 66:     lcd_nibble(high_nibble);
  2056  0007F0  503D               	movf	lcd_send@high_nibble^0,w,c
  2057  0007F2  EC25  F004         	call	_lcd_nibble
  2058  0007F6                     
  2059                           ;modules/lcd/lcd.c: 67:     gpio_pin_write(EN, 1);
  2060  0007F6  0E01               	movlw	1
  2061  0007F8  6E34               	movwf	gpio_pin_write@bit_val^0,c
  2062  0007FA  5055               	movf	_EN^0,w,c
  2063  0007FC  EC09  F000         	call	_gpio_pin_write
  2064  000800                     
  2065                           ;modules/lcd/lcd.c: 68:     delay_ms(3);
  2066  000800  0E00               	movlw	0
  2067  000802  6E35               	movwf	(delay_ms@d+1)^0,c
  2068  000804  0E03               	movlw	3
  2069  000806  6E34               	movwf	delay_ms@d^0,c
  2070  000808  ECD2  F004         	call	_delay_ms	;wreg free
  2071  00080C                     
  2072                           ;modules/lcd/lcd.c: 69:     gpio_pin_write(EN, 0);
  2073  00080C  0E00               	movlw	0
  2074  00080E  6E34               	movwf	gpio_pin_write@bit_val^0,c
  2075  000810  5055               	movf	_EN^0,w,c
  2076  000812  EC09  F000         	call	_gpio_pin_write
  2077  000816                     
  2078                           ;modules/lcd/lcd.c: 71:     delay_ms(3);
  2079  000816  0E00               	movlw	0
  2080  000818  6E35               	movwf	(delay_ms@d+1)^0,c
  2081  00081A  0E03               	movlw	3
  2082  00081C  6E34               	movwf	delay_ms@d^0,c
  2083  00081E  ECD2  F004         	call	_delay_ms	;wreg free
  2084  000822                     
  2085                           ;modules/lcd/lcd.c: 72:     lcd_nibble(low_nibble);
  2086  000822  503E               	movf	lcd_send@low_nibble^0,w,c
  2087  000824  EC25  F004         	call	_lcd_nibble
  2088                           
  2089                           ;modules/lcd/lcd.c: 73:     gpio_pin_write(EN, 1);
  2090  000828  0E01               	movlw	1
  2091  00082A  6E34               	movwf	gpio_pin_write@bit_val^0,c
  2092  00082C  5055               	movf	_EN^0,w,c
  2093  00082E  EC09  F000         	call	_gpio_pin_write
  2094                           
  2095                           ;modules/lcd/lcd.c: 74:     delay_ms(3);
  2096  000832  0E00               	movlw	0
  2097  000834  6E35               	movwf	(delay_ms@d+1)^0,c
  2098  000836  0E03               	movlw	3
  2099  000838  6E34               	movwf	delay_ms@d^0,c
  2100  00083A  ECD2  F004         	call	_delay_ms	;wreg free
  2101                           
  2102                           ;modules/lcd/lcd.c: 75:     gpio_pin_write(EN, 0);
  2103  00083E  0E00               	movlw	0
  2104  000840  6E34               	movwf	gpio_pin_write@bit_val^0,c
  2105  000842  5055               	movf	_EN^0,w,c
  2106  000844  EC09  F000         	call	_gpio_pin_write
  2107  000848  0012               	return		;funcret
  2108  00084A                     __end_of_lcd_send:
  2109                           	opt callstack 0
  2110                           
  2111 ;; *************** function _lcd_nibble *****************
  2112 ;; Defined at:
  2113 ;;		line 42 in file "modules/lcd/lcd.c"
  2114 ;; Parameters:    Size  Location     Type
  2115 ;;  nibble          1    wreg     unsigned char 
  2116 ;; Auto vars:     Size  Location     Type
  2117 ;;  nibble          1   11[COMRAM] unsigned char 
  2118 ;;  i               1   12[COMRAM] unsigned char 
  2119 ;; Return value:  Size  Location     Type
  2120 ;;                  1    wreg      void 
  2121 ;; Registers used:
  2122 ;;		wreg, fsr2l, fsr2h, status,2, status,0, cstack
  2123 ;; Tracked objects:
  2124 ;;		On entry : 0/0
  2125 ;;		On exit  : 0/0
  2126 ;;		Unchanged: 0/0
  2127 ;; Data sizes:     COMRAM   BANK0   BANK1   BANK2   BANK3   BANK4   BANK5
  2128 ;;      Params:         0       0       0       0       0       0       0
  2129 ;;      Locals:         2       0       0       0       0       0       0
  2130 ;;      Temps:          2       0       0       0       0       0       0
  2131 ;;      Totals:         4       0       0       0       0       0       0
  2132 ;;Total ram usage:        4 bytes
  2133 ;; Hardware stack levels used:    1
  2134 ;; Hardware stack levels required when called:    3
  2135 ;; This function calls:
  2136 ;;		_gpio_pin_write
  2137 ;; This function is called by:
  2138 ;;		_lcd_send
  2139 ;; This function uses a non-reentrant model
  2140 ;;
  2141                           
  2142                           	psect	text8
  2143  00084A                     __ptext8:
  2144                           	opt callstack 0
  2145  00084A                     _lcd_nibble:
  2146                           	opt callstack 24
  2147                           
  2148                           ;incstack = 0
  2149                           ;lcd_nibble@nibble stored from wreg
  2150  00084A  6E3A               	movwf	lcd_nibble@nibble^0,c
  2151  00084C                     
  2152                           ;modules/lcd/lcd.c: 42: void lcd_nibble(unsigned char nibble);modules/lcd/lcd.c: 43: {;m
      +                          odules/lcd/lcd.c: 44:   uint8_t i;;modules/lcd/lcd.c: 45:   for (i=0;i<4;i++)
  2153  00084C  0E00               	movlw	0
  2154  00084E  6E3B               	movwf	lcd_nibble@i^0,c
  2155  000850                     l3142:
  2156                           
  2157                           ;modules/lcd/lcd.c: 46:   {;modules/lcd/lcd.c: 47:       if((( nibble >> i) & 1) == 1)
  2158  000850  C03B  F038         	movff	lcd_nibble@i,??_lcd_nibble
  2159  000854  C03A  F039         	movff	lcd_nibble@nibble,??_lcd_nibble+1
  2160  000858  2A38               	incf	??_lcd_nibble^0,f,c
  2161  00085A  EF31  F004         	goto	u2114
  2162  00085E                     u2115:
  2163  00085E  90D8               	bcf	status,0,c
  2164  000860  3239               	rrcf	(??_lcd_nibble+1)^0,f,c
  2165  000862                     u2114:
  2166  000862  2E38               	decfsz	??_lcd_nibble^0,f,c
  2167  000864  EF2F  F004         	goto	u2115
  2168  000868  A039               	btfss	(??_lcd_nibble+1)^0,0,c
  2169  00086A  EF39  F004         	goto	u2121
  2170  00086E  EF3B  F004         	goto	u2120
  2171  000872                     u2121:
  2172  000872  EF48  F004         	goto	l3146
  2173  000876                     u2120:
  2174  000876                     
  2175                           ;modules/lcd/lcd.c: 48:       gpio_pin_write(lcd_data_pins[i], 1);
  2176  000876  0E01               	movlw	1
  2177  000878  6E34               	movwf	gpio_pin_write@bit_val^0,c
  2178  00087A  0E26               	movlw	low _lcd_data_pins
  2179  00087C  243B               	addwf	lcd_nibble@i^0,w,c
  2180  00087E  6ED9               	movwf	fsr2l,c
  2181  000880  6ADA               	clrf	fsr2h,c
  2182  000882  0E00               	movlw	high _lcd_data_pins
  2183  000884  22DA               	addwfc	fsr2h,f,c
  2184  000886  50DF               	movf	indf2,w,c
  2185  000888  EC09  F000         	call	_gpio_pin_write
  2186  00088C  EF53  F004         	goto	l3148
  2187  000890                     l3146:
  2188                           
  2189                           ;modules/lcd/lcd.c: 50:       gpio_pin_write(lcd_data_pins[i], 0);
  2190  000890  0E00               	movlw	0
  2191  000892  6E34               	movwf	gpio_pin_write@bit_val^0,c
  2192  000894  0E26               	movlw	low _lcd_data_pins
  2193  000896  243B               	addwf	lcd_nibble@i^0,w,c
  2194  000898  6ED9               	movwf	fsr2l,c
  2195  00089A  6ADA               	clrf	fsr2h,c
  2196  00089C  0E00               	movlw	high _lcd_data_pins
  2197  00089E  22DA               	addwfc	fsr2h,f,c
  2198  0008A0  50DF               	movf	indf2,w,c
  2199  0008A2  EC09  F000         	call	_gpio_pin_write
  2200  0008A6                     l3148:
  2201                           
  2202                           ;modules/lcd/lcd.c: 51:   }
  2203  0008A6  2A3B               	incf	lcd_nibble@i^0,f,c
  2204  0008A8  0E03               	movlw	3
  2205  0008AA  643B               	cpfsgt	lcd_nibble@i^0,c
  2206  0008AC  EF5A  F004         	goto	u2131
  2207  0008B0  EF5C  F004         	goto	u2130
  2208  0008B4                     u2131:
  2209  0008B4  EF28  F004         	goto	l3142
  2210  0008B8                     u2130:
  2211  0008B8  0012               	return		;funcret
  2212  0008BA                     __end_of_lcd_nibble:
  2213                           	opt callstack 0
  2214                           
  2215 ;; *************** function _gpio_pin_write *****************
  2216 ;; Defined at:
  2217 ;;		line 68 in file "lib/gpio/gpio.c"
  2218 ;; Parameters:    Size  Location     Type
  2219 ;;  pin             1    wreg     unsigned char 
  2220 ;;  bit_val         1    5[COMRAM] unsigned char 
  2221 ;; Auto vars:     Size  Location     Type
  2222 ;;  pin             1    8[COMRAM] unsigned char 
  2223 ;; Return value:  Size  Location     Type
  2224 ;;                  1    wreg      void 
  2225 ;; Registers used:
  2226 ;;		wreg, status,2, status,0
  2227 ;; Tracked objects:
  2228 ;;		On entry : 0/0
  2229 ;;		On exit  : 0/0
  2230 ;;		Unchanged: 0/0
  2231 ;; Data sizes:     COMRAM   BANK0   BANK1   BANK2   BANK3   BANK4   BANK5
  2232 ;;      Params:         1       0       0       0       0       0       0
  2233 ;;      Locals:         1       0       0       0       0       0       0
  2234 ;;      Temps:          2       0       0       0       0       0       0
  2235 ;;      Totals:         4       0       0       0       0       0       0
  2236 ;;Total ram usage:        4 bytes
  2237 ;; Hardware stack levels used:    1
  2238 ;; Hardware stack levels required when called:    2
  2239 ;; This function calls:
  2240 ;;		Nothing
  2241 ;; This function is called by:
  2242 ;;		_lcd_nibble
  2243 ;;		_lcd_send
  2244 ;;		_main
  2245 ;;		_dht_readSensor
  2246 ;;		_HCSR04_trigger
  2247 ;;		_io_test
  2248 ;; This function uses a non-reentrant model
  2249 ;;
  2250                           
  2251                           	psect	text9
  2252  000012                     __ptext9:
  2253                           	opt callstack 0
  2254  000012                     _gpio_pin_write:
  2255                           	opt callstack 24
  2256                           
  2257                           ;incstack = 0
  2258                           ;gpio_pin_write@pin stored from wreg
  2259  000012  6E37               	movwf	gpio_pin_write@pin^0,c
  2260  000014                     
  2261                           ;lib/gpio/gpio.c: 68: void gpio_pin_write(unsigned char pin,unsigned char bit_val);lib/g
      +                          pio/gpio.c: 69: {;lib/gpio/gpio.c: 70:     if (pin<8)
  2262  000014  0E08               	movlw	8
  2263  000016  6037               	cpfslt	gpio_pin_write@pin^0,c
  2264  000018  EF10  F000         	goto	u1851
  2265  00001C  EF12  F000         	goto	u1850
  2266  000020                     u1851:
  2267  000020  EF45  F000         	goto	l3082
  2268  000024                     u1850:
  2269  000024                     
  2270                           ;lib/gpio/gpio.c: 71:  {;lib/gpio/gpio.c: 72:   if (bit_val==0)
  2271  000024  5034               	movf	gpio_pin_write@bit_val^0,w,c
  2272  000026  A4D8               	btfss	status,2,c
  2273  000028  EF18  F000         	goto	u1861
  2274  00002C  EF1A  F000         	goto	u1860
  2275  000030                     u1861:
  2276  000030  EF2C  F000         	goto	l3078
  2277  000034                     u1860:
  2278  000034                     
  2279                           ;lib/gpio/gpio.c: 73:   {;lib/gpio/gpio.c: 74:    PORTB = LATB & ~(1<<pin);
  2280  000034  C037  F035         	movff	gpio_pin_write@pin,??_gpio_pin_write
  2281  000038  0E01               	movlw	1
  2282  00003A  6E36               	movwf	(??_gpio_pin_write+1)^0,c
  2283  00003C  2A35               	incf	??_gpio_pin_write^0,f,c
  2284  00003E  EF23  F000         	goto	u1874
  2285  000042                     u1875:
  2286  000042  90D8               	bcf	status,0,c
  2287  000044  3636               	rlcf	(??_gpio_pin_write+1)^0,f,c
  2288  000046                     u1874:
  2289  000046  2E35               	decfsz	??_gpio_pin_write^0,f,c
  2290  000048  EF21  F000         	goto	u1875
  2291  00004C  5036               	movf	(??_gpio_pin_write+1)^0,w,c
  2292  00004E  0AFF               	xorlw	255
  2293  000050  148A               	andwf	138,w,c	;volatile
  2294  000052  6E81               	movwf	129,c	;volatile
  2295                           
  2296                           ;lib/gpio/gpio.c: 75:   }
  2297  000054  EF37  F001         	goto	l179
  2298  000058                     l3078:
  2299  000058  0434               	decf	gpio_pin_write@bit_val^0,w,c
  2300  00005A  A4D8               	btfss	status,2,c
  2301  00005C  EF32  F000         	goto	u1881
  2302  000060  EF34  F000         	goto	u1880
  2303  000064                     u1881:
  2304  000064  EF37  F001         	goto	l179
  2305  000068                     u1880:
  2306  000068                     
  2307                           ;lib/gpio/gpio.c: 77:   {;lib/gpio/gpio.c: 78:    PORTB = LATB |(1<<pin);
  2308  000068  C037  F035         	movff	gpio_pin_write@pin,??_gpio_pin_write
  2309  00006C  0E01               	movlw	1
  2310  00006E  6E36               	movwf	(??_gpio_pin_write+1)^0,c
  2311  000070  2A35               	incf	??_gpio_pin_write^0,f,c
  2312  000072  EF3D  F000         	goto	u1894
  2313  000076                     u1895:
  2314  000076  90D8               	bcf	status,0,c
  2315  000078  3636               	rlcf	(??_gpio_pin_write+1)^0,f,c
  2316  00007A                     u1894:
  2317  00007A  2E35               	decfsz	??_gpio_pin_write^0,f,c
  2318  00007C  EF3B  F000         	goto	u1895
  2319  000080  5036               	movf	(??_gpio_pin_write+1)^0,w,c
  2320  000082  108A               	iorwf	138,w,c	;volatile
  2321  000084  6E81               	movwf	129,c	;volatile
  2322  000086  EF37  F001         	goto	l179
  2323  00008A                     l3082:
  2324  00008A  0E10               	movlw	16
  2325  00008C  6037               	cpfslt	gpio_pin_write@pin^0,c
  2326  00008E  EF4B  F000         	goto	u1901
  2327  000092  EF4D  F000         	goto	u1900
  2328  000096                     u1901:
  2329  000096  EF82  F000         	goto	l3094
  2330  00009A                     u1900:
  2331  00009A                     
  2332                           ;lib/gpio/gpio.c: 82:  {;lib/gpio/gpio.c: 83:         pin-=8;
  2333  00009A  0E08               	movlw	8
  2334  00009C  5E37               	subwf	gpio_pin_write@pin^0,f,c
  2335  00009E                     
  2336                           ;lib/gpio/gpio.c: 84:   if (bit_val==0)
  2337  00009E  5034               	movf	gpio_pin_write@bit_val^0,w,c
  2338  0000A0  A4D8               	btfss	status,2,c
  2339  0000A2  EF55  F000         	goto	u1911
  2340  0000A6  EF57  F000         	goto	u1910
  2341  0000AA                     u1911:
  2342  0000AA  EF69  F000         	goto	l3090
  2343  0000AE                     u1910:
  2344  0000AE                     
  2345                           ;lib/gpio/gpio.c: 85:   {;lib/gpio/gpio.c: 86:    PORTD = LATD & ~(1<<pin);
  2346  0000AE  C037  F035         	movff	gpio_pin_write@pin,??_gpio_pin_write
  2347  0000B2  0E01               	movlw	1
  2348  0000B4  6E36               	movwf	(??_gpio_pin_write+1)^0,c
  2349  0000B6  2A35               	incf	??_gpio_pin_write^0,f,c
  2350  0000B8  EF60  F000         	goto	u1924
  2351  0000BC                     u1925:
  2352  0000BC  90D8               	bcf	status,0,c
  2353  0000BE  3636               	rlcf	(??_gpio_pin_write+1)^0,f,c
  2354  0000C0                     u1924:
  2355  0000C0  2E35               	decfsz	??_gpio_pin_write^0,f,c
  2356  0000C2  EF5E  F000         	goto	u1925
  2357  0000C6  5036               	movf	(??_gpio_pin_write+1)^0,w,c
  2358  0000C8  0AFF               	xorlw	255
  2359  0000CA  148C               	andwf	140,w,c	;volatile
  2360  0000CC  6E83               	movwf	131,c	;volatile
  2361                           
  2362                           ;lib/gpio/gpio.c: 87:   }
  2363  0000CE  EF37  F001         	goto	l179
  2364  0000D2                     l3090:
  2365  0000D2  0434               	decf	gpio_pin_write@bit_val^0,w,c
  2366  0000D4  A4D8               	btfss	status,2,c
  2367  0000D6  EF6F  F000         	goto	u1931
  2368  0000DA  EF71  F000         	goto	u1930
  2369  0000DE                     u1931:
  2370  0000DE  EF37  F001         	goto	l179
  2371  0000E2                     u1930:
  2372  0000E2                     
  2373                           ;lib/gpio/gpio.c: 89:   {;lib/gpio/gpio.c: 90:    PORTD = LATD |(1<<pin);
  2374  0000E2  C037  F035         	movff	gpio_pin_write@pin,??_gpio_pin_write
  2375  0000E6  0E01               	movlw	1
  2376  0000E8  6E36               	movwf	(??_gpio_pin_write+1)^0,c
  2377  0000EA  2A35               	incf	??_gpio_pin_write^0,f,c
  2378  0000EC  EF7A  F000         	goto	u1944
  2379  0000F0                     u1945:
  2380  0000F0  90D8               	bcf	status,0,c
  2381  0000F2  3636               	rlcf	(??_gpio_pin_write+1)^0,f,c
  2382  0000F4                     u1944:
  2383  0000F4  2E35               	decfsz	??_gpio_pin_write^0,f,c
  2384  0000F6  EF78  F000         	goto	u1945
  2385  0000FA  5036               	movf	(??_gpio_pin_write+1)^0,w,c
  2386  0000FC  108C               	iorwf	140,w,c	;volatile
  2387  0000FE  6E83               	movwf	131,c	;volatile
  2388  000100  EF37  F001         	goto	l179
  2389  000104                     l3094:
  2390  000104  0E18               	movlw	24
  2391  000106  6037               	cpfslt	gpio_pin_write@pin^0,c
  2392  000108  EF88  F000         	goto	u1951
  2393  00010C  EF8A  F000         	goto	u1950
  2394  000110                     u1951:
  2395  000110  EFBF  F000         	goto	l3106
  2396  000114                     u1950:
  2397  000114                     
  2398                           ;lib/gpio/gpio.c: 94:  {;lib/gpio/gpio.c: 95:         pin-=16;
  2399  000114  0E10               	movlw	16
  2400  000116  5E37               	subwf	gpio_pin_write@pin^0,f,c
  2401  000118                     
  2402                           ;lib/gpio/gpio.c: 96:   if (bit_val==0)
  2403  000118  5034               	movf	gpio_pin_write@bit_val^0,w,c
  2404  00011A  A4D8               	btfss	status,2,c
  2405  00011C  EF92  F000         	goto	u1961
  2406  000120  EF94  F000         	goto	u1960
  2407  000124                     u1961:
  2408  000124  EFA6  F000         	goto	l3102
  2409  000128                     u1960:
  2410  000128                     
  2411                           ;lib/gpio/gpio.c: 97:   {;lib/gpio/gpio.c: 98:    PORTC = LATC & ~(1<<pin);
  2412  000128  C037  F035         	movff	gpio_pin_write@pin,??_gpio_pin_write
  2413  00012C  0E01               	movlw	1
  2414  00012E  6E36               	movwf	(??_gpio_pin_write+1)^0,c
  2415  000130  2A35               	incf	??_gpio_pin_write^0,f,c
  2416  000132  EF9D  F000         	goto	u1974
  2417  000136                     u1975:
  2418  000136  90D8               	bcf	status,0,c
  2419  000138  3636               	rlcf	(??_gpio_pin_write+1)^0,f,c
  2420  00013A                     u1974:
  2421  00013A  2E35               	decfsz	??_gpio_pin_write^0,f,c
  2422  00013C  EF9B  F000         	goto	u1975
  2423  000140  5036               	movf	(??_gpio_pin_write+1)^0,w,c
  2424  000142  0AFF               	xorlw	255
  2425  000144  148B               	andwf	139,w,c	;volatile
  2426  000146  6E82               	movwf	130,c	;volatile
  2427                           
  2428                           ;lib/gpio/gpio.c: 99:   }
  2429  000148  EF37  F001         	goto	l179
  2430  00014C                     l3102:
  2431  00014C  0434               	decf	gpio_pin_write@bit_val^0,w,c
  2432  00014E  A4D8               	btfss	status,2,c
  2433  000150  EFAC  F000         	goto	u1981
  2434  000154  EFAE  F000         	goto	u1980
  2435  000158                     u1981:
  2436  000158  EF37  F001         	goto	l179
  2437  00015C                     u1980:
  2438  00015C                     
  2439                           ;lib/gpio/gpio.c: 101:   {;lib/gpio/gpio.c: 102:    PORTC = LATC |(1<<pin);
  2440  00015C  C037  F035         	movff	gpio_pin_write@pin,??_gpio_pin_write
  2441  000160  0E01               	movlw	1
  2442  000162  6E36               	movwf	(??_gpio_pin_write+1)^0,c
  2443  000164  2A35               	incf	??_gpio_pin_write^0,f,c
  2444  000166  EFB7  F000         	goto	u1994
  2445  00016A                     u1995:
  2446  00016A  90D8               	bcf	status,0,c
  2447  00016C  3636               	rlcf	(??_gpio_pin_write+1)^0,f,c
  2448  00016E                     u1994:
  2449  00016E  2E35               	decfsz	??_gpio_pin_write^0,f,c
  2450  000170  EFB5  F000         	goto	u1995
  2451  000174  5036               	movf	(??_gpio_pin_write+1)^0,w,c
  2452  000176  108B               	iorwf	139,w,c	;volatile
  2453  000178  6E82               	movwf	130,c	;volatile
  2454  00017A  EF37  F001         	goto	l179
  2455  00017E                     l3106:
  2456  00017E  0E1E               	movlw	30
  2457  000180  6037               	cpfslt	gpio_pin_write@pin^0,c
  2458  000182  EFC5  F000         	goto	u2001
  2459  000186  EFC7  F000         	goto	u2000
  2460  00018A                     u2001:
  2461  00018A  EFFC  F000         	goto	l3118
  2462  00018E                     u2000:
  2463  00018E                     
  2464                           ;lib/gpio/gpio.c: 106:  {;lib/gpio/gpio.c: 107:         pin-=24;
  2465  00018E  0E18               	movlw	24
  2466  000190  5E37               	subwf	gpio_pin_write@pin^0,f,c
  2467  000192                     
  2468                           ;lib/gpio/gpio.c: 108:   if (bit_val==0)
  2469  000192  5034               	movf	gpio_pin_write@bit_val^0,w,c
  2470  000194  A4D8               	btfss	status,2,c
  2471  000196  EFCF  F000         	goto	u2011
  2472  00019A  EFD1  F000         	goto	u2010
  2473  00019E                     u2011:
  2474  00019E  EFE3  F000         	goto	l3114
  2475  0001A2                     u2010:
  2476  0001A2                     
  2477                           ;lib/gpio/gpio.c: 109:   {;lib/gpio/gpio.c: 110:    PORTA = LATA & ~(1<<pin);
  2478  0001A2  C037  F035         	movff	gpio_pin_write@pin,??_gpio_pin_write
  2479  0001A6  0E01               	movlw	1
  2480  0001A8  6E36               	movwf	(??_gpio_pin_write+1)^0,c
  2481  0001AA  2A35               	incf	??_gpio_pin_write^0,f,c
  2482  0001AC  EFDA  F000         	goto	u2024
  2483  0001B0                     u2025:
  2484  0001B0  90D8               	bcf	status,0,c
  2485  0001B2  3636               	rlcf	(??_gpio_pin_write+1)^0,f,c
  2486  0001B4                     u2024:
  2487  0001B4  2E35               	decfsz	??_gpio_pin_write^0,f,c
  2488  0001B6  EFD8  F000         	goto	u2025
  2489  0001BA  5036               	movf	(??_gpio_pin_write+1)^0,w,c
  2490  0001BC  0AFF               	xorlw	255
  2491  0001BE  1489               	andwf	137,w,c	;volatile
  2492  0001C0  6E80               	movwf	128,c	;volatile
  2493                           
  2494                           ;lib/gpio/gpio.c: 111:   }
  2495  0001C2  EF37  F001         	goto	l179
  2496  0001C6                     l3114:
  2497  0001C6  0434               	decf	gpio_pin_write@bit_val^0,w,c
  2498  0001C8  A4D8               	btfss	status,2,c
  2499  0001CA  EFE9  F000         	goto	u2031
  2500  0001CE  EFEB  F000         	goto	u2030
  2501  0001D2                     u2031:
  2502  0001D2  EF37  F001         	goto	l179
  2503  0001D6                     u2030:
  2504  0001D6                     
  2505                           ;lib/gpio/gpio.c: 113:   {;lib/gpio/gpio.c: 114:    PORTA = LATA |(1<<pin);
  2506  0001D6  C037  F035         	movff	gpio_pin_write@pin,??_gpio_pin_write
  2507  0001DA  0E01               	movlw	1
  2508  0001DC  6E36               	movwf	(??_gpio_pin_write+1)^0,c
  2509  0001DE  2A35               	incf	??_gpio_pin_write^0,f,c
  2510  0001E0  EFF4  F000         	goto	u2044
  2511  0001E4                     u2045:
  2512  0001E4  90D8               	bcf	status,0,c
  2513  0001E6  3636               	rlcf	(??_gpio_pin_write+1)^0,f,c
  2514  0001E8                     u2044:
  2515  0001E8  2E35               	decfsz	??_gpio_pin_write^0,f,c
  2516  0001EA  EFF2  F000         	goto	u2045
  2517  0001EE  5036               	movf	(??_gpio_pin_write+1)^0,w,c
  2518  0001F0  1089               	iorwf	137,w,c	;volatile
  2519  0001F2  6E80               	movwf	128,c	;volatile
  2520  0001F4  EF37  F001         	goto	l179
  2521  0001F8                     l3118:
  2522  0001F8  0E21               	movlw	33
  2523  0001FA  6037               	cpfslt	gpio_pin_write@pin^0,c
  2524  0001FC  EF02  F001         	goto	u2051
  2525  000200  EF04  F001         	goto	u2050
  2526  000204                     u2051:
  2527  000204  EF37  F001         	goto	l179
  2528  000208                     u2050:
  2529  000208                     
  2530                           ;lib/gpio/gpio.c: 118:  {;lib/gpio/gpio.c: 119:         pin-=30;
  2531  000208  0E1E               	movlw	30
  2532  00020A  5E37               	subwf	gpio_pin_write@pin^0,f,c
  2533  00020C                     
  2534                           ;lib/gpio/gpio.c: 120:   if (bit_val==0)
  2535  00020C  5034               	movf	gpio_pin_write@bit_val^0,w,c
  2536  00020E  A4D8               	btfss	status,2,c
  2537  000210  EF0C  F001         	goto	u2061
  2538  000214  EF0E  F001         	goto	u2060
  2539  000218                     u2061:
  2540  000218  EF20  F001         	goto	l3126
  2541  00021C                     u2060:
  2542  00021C                     
  2543                           ;lib/gpio/gpio.c: 121:   {;lib/gpio/gpio.c: 122:    PORTE = LATE & ~(1<<pin);
  2544  00021C  C037  F035         	movff	gpio_pin_write@pin,??_gpio_pin_write
  2545  000220  0E01               	movlw	1
  2546  000222  6E36               	movwf	(??_gpio_pin_write+1)^0,c
  2547  000224  2A35               	incf	??_gpio_pin_write^0,f,c
  2548  000226  EF17  F001         	goto	u2074
  2549  00022A                     u2075:
  2550  00022A  90D8               	bcf	status,0,c
  2551  00022C  3636               	rlcf	(??_gpio_pin_write+1)^0,f,c
  2552  00022E                     u2074:
  2553  00022E  2E35               	decfsz	??_gpio_pin_write^0,f,c
  2554  000230  EF15  F001         	goto	u2075
  2555  000234  5036               	movf	(??_gpio_pin_write+1)^0,w,c
  2556  000236  0AFF               	xorlw	255
  2557  000238  148D               	andwf	141,w,c	;volatile
  2558  00023A  6E84               	movwf	132,c	;volatile
  2559                           
  2560                           ;lib/gpio/gpio.c: 123:   }
  2561  00023C  EF37  F001         	goto	l179
  2562  000240                     l3126:
  2563  000240  0434               	decf	gpio_pin_write@bit_val^0,w,c
  2564  000242  A4D8               	btfss	status,2,c
  2565  000244  EF26  F001         	goto	u2081
  2566  000248  EF28  F001         	goto	u2080
  2567  00024C                     u2081:
  2568  00024C  EF37  F001         	goto	l179
  2569  000250                     u2080:
  2570  000250                     
  2571                           ;lib/gpio/gpio.c: 125:   {;lib/gpio/gpio.c: 126:    PORTE = LATE |(1<<pin);
  2572  000250  C037  F035         	movff	gpio_pin_write@pin,??_gpio_pin_write
  2573  000254  0E01               	movlw	1
  2574  000256  6E36               	movwf	(??_gpio_pin_write+1)^0,c
  2575  000258  2A35               	incf	??_gpio_pin_write^0,f,c
  2576  00025A  EF31  F001         	goto	u2094
  2577  00025E                     u2095:
  2578  00025E  90D8               	bcf	status,0,c
  2579  000260  3636               	rlcf	(??_gpio_pin_write+1)^0,f,c
  2580  000262                     u2094:
  2581  000262  2E35               	decfsz	??_gpio_pin_write^0,f,c
  2582  000264  EF2F  F001         	goto	u2095
  2583  000268  5036               	movf	(??_gpio_pin_write+1)^0,w,c
  2584  00026A  108D               	iorwf	141,w,c	;volatile
  2585  00026C  6E84               	movwf	132,c	;volatile
  2586  00026E                     l179:
  2587  00026E  0012               	return		;funcret
  2588  000270                     __end_of_gpio_pin_write:
  2589                           	opt callstack 0
  2590                           
  2591 ;; *************** function _delay_ms *****************
  2592 ;; Defined at:
  2593 ;;		line 4 in file "lib/delay/delay.c"
  2594 ;; Parameters:    Size  Location     Type
  2595 ;;  d               2    5[COMRAM] unsigned int 
  2596 ;; Auto vars:     Size  Location     Type
  2597 ;;  i               2    8[COMRAM] int 
  2598 ;; Return value:  Size  Location     Type
  2599 ;;                  1    wreg      void 
  2600 ;; Registers used:
  2601 ;;		wreg, status,2, status,0
  2602 ;; Tracked objects:
  2603 ;;		On entry : 0/0
  2604 ;;		On exit  : 0/0
  2605 ;;		Unchanged: 0/0
  2606 ;; Data sizes:     COMRAM   BANK0   BANK1   BANK2   BANK3   BANK4   BANK5
  2607 ;;      Params:         2       0       0       0       0       0       0
  2608 ;;      Locals:         2       0       0       0       0       0       0
  2609 ;;      Temps:          1       0       0       0       0       0       0
  2610 ;;      Totals:         5       0       0       0       0       0       0
  2611 ;;Total ram usage:        5 bytes
  2612 ;; Hardware stack levels used:    1
  2613 ;; Hardware stack levels required when called:    2
  2614 ;; This function calls:
  2615 ;;		Nothing
  2616 ;; This function is called by:
  2617 ;;		_lcd_send
  2618 ;;		_main
  2619 ;;		_dht_readSensor
  2620 ;;		_gsm_msg_send
  2621 ;;		_gsm_msg_read
  2622 ;;		_debug
  2623 ;;		_gsm_test
  2624 ;;		_mpu6050_test
  2625 ;;		_hcsr04_test
  2626 ;;		_adc_test
  2627 ;;		_system_tick_test
  2628 ;;		_mcp32_test
  2629 ;;		_i2c_eeprom_test
  2630 ;;		_rtc_test
  2631 ;;		_dht11_test
  2632 ;; This function uses a non-reentrant model
  2633 ;;
  2634                           
  2635                           	psect	text10
  2636  0009A4                     __ptext10:
  2637                           	opt callstack 0
  2638  0009A4                     _delay_ms:
  2639                           	opt callstack 25
  2640  0009A4                     
  2641                           ;lib/delay/delay.c: 4: void delay_ms(unsigned int d);lib/delay/delay.c: 5: {;lib/delay/d
      +                          elay.c: 6:         int i;;lib/delay/delay.c: 7:         for(i=0;i<d;i++)
  2642  0009A4  0E00               	movlw	0
  2643  0009A6  6E38               	movwf	(delay_ms@i+1)^0,c
  2644  0009A8  0E00               	movlw	0
  2645  0009AA  6E37               	movwf	delay_ms@i^0,c
  2646  0009AC  EFE2  F004         	goto	l5
  2647  0009B0                     l3132:
  2648                           
  2649                           ;lib/delay/delay.c: 8:           _delay((unsigned long)((1)*(20000000/4000.0)));
  2650  0009B0  0E07               	movlw	7
  2651  0009B2  6E36               	movwf	??_delay_ms^0,c
  2652  0009B4  0E7D               	movlw	125
  2653  0009B6                     u2697:
  2654  0009B6  2EE8               	decfsz	wreg,f,c
  2655  0009B8  D7FE               	bra	u2697
  2656  0009BA  2E36               	decfsz	??_delay_ms^0,f,c
  2657  0009BC  D7FC               	bra	u2697
  2658  0009BE  F000               	nop	
  2659  0009C0  4A37               	infsnz	delay_ms@i^0,f,c
  2660  0009C2  2A38               	incf	(delay_ms@i+1)^0,f,c
  2661  0009C4                     l5:
  2662  0009C4  5034               	movf	delay_ms@d^0,w,c
  2663  0009C6  5C37               	subwf	delay_ms@i^0,w,c
  2664  0009C8  5035               	movf	(delay_ms@d+1)^0,w,c
  2665  0009CA  5838               	subwfb	(delay_ms@i+1)^0,w,c
  2666  0009CC  A0D8               	btfss	status,0,c
  2667  0009CE  EFEB  F004         	goto	u2101
  2668  0009D2  EFED  F004         	goto	u2100
  2669  0009D6                     u2101:
  2670  0009D6  EFD8  F004         	goto	l3132
  2671  0009DA                     u2100:
  2672  0009DA  0012               	return		;funcret
  2673  0009DC                     __end_of_delay_ms:
  2674                           	opt callstack 0
  2675                           
  2676 ;; *************** function _ISR *****************
  2677 ;; Defined at:
  2678 ;;		line 5 in file "lib/isr/isr.c"
  2679 ;; Parameters:    Size  Location     Type
  2680 ;;		None
  2681 ;; Auto vars:     Size  Location     Type
  2682 ;;		None
  2683 ;; Return value:  Size  Location     Type
  2684 ;;                  1    wreg      void 
  2685 ;; Registers used:
  2686 ;;		wreg, fsr2l, fsr2h, status,2, status,0, cstack
  2687 ;; Tracked objects:
  2688 ;;		On entry : 0/0
  2689 ;;		On exit  : 0/0
  2690 ;;		Unchanged: 0/0
  2691 ;; Data sizes:     COMRAM   BANK0   BANK1   BANK2   BANK3   BANK4   BANK5
  2692 ;;      Params:         0       0       0       0       0       0       0
  2693 ;;      Locals:         0       0       0       0       0       0       0
  2694 ;;      Temps:          2       0       0       0       0       0       0
  2695 ;;      Totals:         2       0       0       0       0       0       0
  2696 ;;Total ram usage:        2 bytes
  2697 ;; Hardware stack levels used:    1
  2698 ;; Hardware stack levels required when called:    1
  2699 ;; This function calls:
  2700 ;;		_serial_interrupt
  2701 ;;		_sys_interrupt
  2702 ;; This function is called by:
  2703 ;;		Interrupt level 2
  2704 ;; This function uses a non-reentrant model
  2705 ;;
  2706                           
  2707                           	psect	intcode
  2708  000008                     __pintcode:
  2709                           	opt callstack 0
  2710  000008                     _ISR:
  2711                           	opt callstack 24
  2712                           
  2713                           ;incstack = 0
  2714  000008  8257               	bsf	int$flags,1,c	;set compiler interrupt flag (level 2)
  2715  00000A  ED5D  F004         	call	int_func,f	;refresh shadow registers
  2716                           
  2717                           	psect	intcode_body
  2718  0008BA                     __pintcode_body:
  2719                           	opt callstack 24
  2720  0008BA                     int_func:
  2721                           	opt callstack 24
  2722  0008BA  0006               	pop		; remove dummy address from shadow register refresh
  2723  0008BC  CFD9 F032          	movff	fsr2l,??_ISR
  2724  0008C0  CFDA F033          	movff	fsr2h,??_ISR+1
  2725  0008C4                     
  2726                           ;lib/isr/isr.c: 7:     if (RCIE && RCIF) {
  2727  0008C4  AA9D               	btfss	3997,5,c	;volatile
  2728  0008C6  EF67  F004         	goto	i2u176_41
  2729  0008CA  EF69  F004         	goto	i2u176_40
  2730  0008CE                     i2u176_41:
  2731  0008CE  EF74  F004         	goto	i2l497
  2732  0008D2                     i2u176_40:
  2733  0008D2  AA9E               	btfss	3998,5,c	;volatile
  2734  0008D4  EF6E  F004         	goto	i2u177_41
  2735  0008D8  EF70  F004         	goto	i2u177_40
  2736  0008DC                     i2u177_41:
  2737  0008DC  EF74  F004         	goto	i2l497
  2738  0008E0                     i2u177_40:
  2739  0008E0                     
  2740                           ;lib/isr/isr.c: 8:         serial_interrupt();
  2741  0008E0  EC2C  F003         	call	_serial_interrupt	;wreg free
  2742  0008E4  EF85  F004         	goto	i2l498
  2743  0008E8                     i2l497:
  2744  0008E8  AAF2               	btfss	4082,5,c	;volatile
  2745  0008EA  EF79  F004         	goto	i2u178_41
  2746  0008EE  EF7B  F004         	goto	i2u178_40
  2747  0008F2                     i2u178_41:
  2748  0008F2  EF85  F004         	goto	i2l498
  2749  0008F6                     i2u178_40:
  2750  0008F6  A4F2               	btfss	4082,2,c	;volatile
  2751  0008F8  EF80  F004         	goto	i2u179_41
  2752  0008FC  EF82  F004         	goto	i2u179_40
  2753  000900                     i2u179_41:
  2754  000900  EF85  F004         	goto	i2l498
  2755  000904                     i2u179_40:
  2756  000904                     
  2757                           ;lib/isr/isr.c: 13:     {;lib/isr/isr.c: 14:         sys_interrupt();
  2758  000904  ECEE  F004         	call	_sys_interrupt	;wreg free
  2759  000908                     
  2760                           ;lib/isr/isr.c: 15:         TMR0IF=0;
  2761  000908  94F2               	bcf	4082,2,c	;volatile
  2762  00090A                     i2l498:
  2763  00090A  C033  FFDA         	movff	??_ISR+1,fsr2h
  2764  00090E  C032  FFD9         	movff	??_ISR,fsr2l
  2765  000912  9257               	bcf	int$flags,1,c	;clear compiler interrupt flag (level 2)
  2766  000914  0011               	retfie		f
  2767  000916                     __end_of_ISR:
  2768                           	opt callstack 0
  2769                           
  2770 ;; *************** function _sys_interrupt *****************
  2771 ;; Defined at:
  2772 ;;		line 20 in file "lib/systick/systick.c"
  2773 ;; Parameters:    Size  Location     Type
  2774 ;;		None
  2775 ;; Auto vars:     Size  Location     Type
  2776 ;;		None
  2777 ;; Return value:  Size  Location     Type
  2778 ;;                  1    wreg      void 
  2779 ;; Registers used:
  2780 ;;		wreg, status,2, status,0
  2781 ;; Tracked objects:
  2782 ;;		On entry : 0/0
  2783 ;;		On exit  : 0/0
  2784 ;;		Unchanged: 0/0
  2785 ;; Data sizes:     COMRAM   BANK0   BANK1   BANK2   BANK3   BANK4   BANK5
  2786 ;;      Params:         0       0       0       0       0       0       0
  2787 ;;      Locals:         0       0       0       0       0       0       0
  2788 ;;      Temps:          0       0       0       0       0       0       0
  2789 ;;      Totals:         0       0       0       0       0       0       0
  2790 ;;Total ram usage:        0 bytes
  2791 ;; Hardware stack levels used:    1
  2792 ;; This function calls:
  2793 ;;		Nothing
  2794 ;; This function is called by:
  2795 ;;		_ISR
  2796 ;; This function uses a non-reentrant model
  2797 ;;
  2798                           
  2799                           	psect	text12
  2800  0009DC                     __ptext12:
  2801                           	opt callstack 0
  2802  0009DC                     _sys_interrupt:
  2803                           	opt callstack 24
  2804  0009DC                     
  2805                           ;lib/systick/systick.c: 22:         timer_count++;
  2806  0009DC  2A2E               	incf	_timer_count^0,f,c	;volatile
  2807  0009DE                     
  2808                           ;lib/systick/systick.c: 23:         if(timer_count == 76 )
  2809  0009DE  0E4C               	movlw	76
  2810  0009E0  182E               	xorwf	_timer_count^0,w,c	;volatile
  2811  0009E2  A4D8               	btfss	status,2,c
  2812  0009E4  EFF6  F004         	goto	i2u139_41
  2813  0009E8  EFF8  F004         	goto	i2u139_40
  2814  0009EC                     i2u139_41:
  2815  0009EC  EFFC  F004         	goto	i2l531
  2816  0009F0                     i2u139_40:
  2817  0009F0                     
  2818                           ;lib/systick/systick.c: 24:         {;lib/systick/systick.c: 25:             timer_count
      +                          =0;
  2819  0009F0  0E00               	movlw	0
  2820  0009F2  6E2E               	movwf	_timer_count^0,c	;volatile
  2821  0009F4                     
  2822                           ;lib/systick/systick.c: 26:             system_tick++;
  2823  0009F4  4A2A               	infsnz	_system_tick^0,f,c	;volatile
  2824  0009F6  2A2B               	incf	(_system_tick+1)^0,f,c	;volatile
  2825  0009F8                     i2l531:
  2826  0009F8  0012               	return		;funcret
  2827  0009FA                     __end_of_sys_interrupt:
  2828                           	opt callstack 0
  2829                           
  2830 ;; *************** function _serial_interrupt *****************
  2831 ;; Defined at:
  2832 ;;		line 82 in file "lib/serial/serial.c"
  2833 ;; Parameters:    Size  Location     Type
  2834 ;;		None
  2835 ;; Auto vars:     Size  Location     Type
  2836 ;;  rxData          1    2[COMRAM] unsigned char 
  2837 ;; Return value:  Size  Location     Type
  2838 ;;                  1    wreg      void 
  2839 ;; Registers used:
  2840 ;;		wreg, fsr2l, fsr2h, status,2, status,0
  2841 ;; Tracked objects:
  2842 ;;		On entry : 0/0
  2843 ;;		On exit  : 0/0
  2844 ;;		Unchanged: 0/0
  2845 ;; Data sizes:     COMRAM   BANK0   BANK1   BANK2   BANK3   BANK4   BANK5
  2846 ;;      Params:         0       0       0       0       0       0       0
  2847 ;;      Locals:         1       0       0       0       0       0       0
  2848 ;;      Temps:          2       0       0       0       0       0       0
  2849 ;;      Totals:         3       0       0       0       0       0       0
  2850 ;;Total ram usage:        3 bytes
  2851 ;; Hardware stack levels used:    1
  2852 ;; This function calls:
  2853 ;;		Nothing
  2854 ;; This function is called by:
  2855 ;;		_ISR
  2856 ;; This function uses a non-reentrant model
  2857 ;;
  2858                           
  2859                           	psect	text13
  2860  000658                     __ptext13:
  2861                           	opt callstack 0
  2862  000658                     _serial_interrupt:
  2863                           	opt callstack 24
  2864  000658                     
  2865                           ;lib/serial/serial.c: 84:  char rxData=RCREG;
  2866  000658  CFAE F031          	movff	4014,serial_interrupt@rxData	;volatile
  2867  00065C                     
  2868                           ;lib/serial/serial.c: 85:   if((rx_Buffer_Tail == 256 -1 && (rx_Buffer_Head == 0)) || ((
      +                          rx_Buffer_Tail + 1) == rx_Buffer_Head))
  2869  00065C  2851               	incf	_rx_Buffer_Tail^0,w,c	;volatile
  2870  00065E  1052               	iorwf	(_rx_Buffer_Tail+1)^0,w,c	;volatile
  2871  000660  A4D8               	btfss	status,2,c
  2872  000662  EF35  F003         	goto	i2u128_41
  2873  000666  EF37  F003         	goto	i2u128_40
  2874  00066A                     i2u128_41:
  2875  00066A  EF40  F003         	goto	i2l2274
  2876  00066E                     i2u128_40:
  2877  00066E  5053               	movf	_rx_Buffer_Head^0,w,c	;volatile
  2878  000670  1054               	iorwf	(_rx_Buffer_Head+1)^0,w,c	;volatile
  2879  000672  B4D8               	btfsc	status,2,c
  2880  000674  EF3E  F003         	goto	i2u129_41
  2881  000678  EF40  F003         	goto	i2u129_40
  2882  00067C                     i2u129_41:
  2883  00067C  EF52  F003         	goto	i2l2276
  2884  000680                     i2u129_40:
  2885  000680                     i2l2274:
  2886  000680  0E01               	movlw	1
  2887  000682  2451               	addwf	_rx_Buffer_Tail^0,w,c	;volatile
  2888  000684  6E2F               	movwf	??_serial_interrupt^0,c
  2889  000686  0E00               	movlw	0
  2890  000688  2052               	addwfc	(_rx_Buffer_Tail+1)^0,w,c	;volatile
  2891  00068A  6E30               	movwf	(??_serial_interrupt+1)^0,c
  2892  00068C  5053               	movf	_rx_Buffer_Head^0,w,c	;volatile
  2893  00068E  182F               	xorwf	??_serial_interrupt^0,w,c
  2894  000690  E107               	bnz	i2u130_41
  2895  000692  5054               	movf	(_rx_Buffer_Head+1)^0,w,c	;volatile
  2896  000694  1830               	xorwf	(??_serial_interrupt+1)^0,w,c
  2897  000696  A4D8               	btfss	status,2,c
  2898  000698  EF50  F003         	goto	i2u130_41
  2899  00069C  EF52  F003         	goto	i2u130_40
  2900  0006A0                     i2u130_41:
  2901  0006A0  EF54  F003         	goto	i2l2278
  2902  0006A4                     i2u130_40:
  2903  0006A4                     i2l2276:
  2904                           
  2905                           ;lib/serial/serial.c: 86:    {;lib/serial/serial.c: 87:     rx_Buffer_Head++;
  2906  0006A4  4A53               	infsnz	_rx_Buffer_Head^0,f,c	;volatile
  2907  0006A6  2A54               	incf	(_rx_Buffer_Head+1)^0,f,c	;volatile
  2908  0006A8                     i2l2278:
  2909                           
  2910                           ;lib/serial/serial.c: 90:    if(rx_Buffer_Head == 256 || rx_Buffer_Head == -1)
  2911  0006A8  0454               	decf	(_rx_Buffer_Head+1)^0,w,c	;volatile
  2912  0006AA  1053               	iorwf	_rx_Buffer_Head^0,w,c	;volatile
  2913  0006AC  B4D8               	btfsc	status,2,c
  2914  0006AE  EF5B  F003         	goto	i2u131_41
  2915  0006B2  EF5D  F003         	goto	i2u131_40
  2916  0006B6                     i2u131_41:
  2917  0006B6  EF67  F003         	goto	i2l2282
  2918  0006BA                     i2u131_40:
  2919  0006BA  2853               	incf	_rx_Buffer_Head^0,w,c	;volatile
  2920  0006BC  E106               	bnz	i2u132_41
  2921  0006BE  2854               	incf	(_rx_Buffer_Head+1)^0,w,c	;volatile
  2922  0006C0  A4D8               	btfss	status,2,c
  2923  0006C2  EF65  F003         	goto	i2u132_41
  2924  0006C6  EF67  F003         	goto	i2u132_40
  2925  0006CA                     i2u132_41:
  2926  0006CA  EF6B  F003         	goto	i2l2284
  2927  0006CE                     i2u132_40:
  2928  0006CE                     i2l2282:
  2929                           
  2930                           ;lib/serial/serial.c: 91:     rx_Buffer_Head=0;
  2931  0006CE  0E00               	movlw	0
  2932  0006D0  6E54               	movwf	(_rx_Buffer_Head+1)^0,c	;volatile
  2933  0006D2  0E00               	movlw	0
  2934  0006D4  6E53               	movwf	_rx_Buffer_Head^0,c	;volatile
  2935  0006D6                     i2l2284:
  2936                           
  2937                           ;lib/serial/serial.c: 93:    if(rx_Buffer_Tail == 256 - 1)
  2938  0006D6  2851               	incf	_rx_Buffer_Tail^0,w,c	;volatile
  2939  0006D8  1052               	iorwf	(_rx_Buffer_Tail+1)^0,w,c	;volatile
  2940  0006DA  A4D8               	btfss	status,2,c
  2941  0006DC  EF72  F003         	goto	i2u133_41
  2942  0006E0  EF74  F003         	goto	i2u133_40
  2943  0006E4                     i2u133_41:
  2944  0006E4  EF7A  F003         	goto	i2l2288
  2945  0006E8                     i2u133_40:
  2946  0006E8                     
  2947                           ;lib/serial/serial.c: 94:      rx_Buffer_Tail=0;
  2948  0006E8  0E00               	movlw	0
  2949  0006EA  6E52               	movwf	(_rx_Buffer_Tail+1)^0,c	;volatile
  2950  0006EC  0E00               	movlw	0
  2951  0006EE  6E51               	movwf	_rx_Buffer_Tail^0,c	;volatile
  2952  0006F0  EF7C  F003         	goto	i2l2290
  2953  0006F4                     i2l2288:
  2954                           
  2955                           ;lib/serial/serial.c: 96:      rx_Buffer_Tail++;
  2956  0006F4  4A51               	infsnz	_rx_Buffer_Tail^0,f,c	;volatile
  2957  0006F6  2A52               	incf	(_rx_Buffer_Tail+1)^0,f,c	;volatile
  2958  0006F8                     i2l2290:
  2959                           
  2960                           ;lib/serial/serial.c: 97:    rxBuffer[rx_Buffer_Tail]=rxData;
  2961  0006F8  0E00               	movlw	low _rxBuffer
  2962  0006FA  2451               	addwf	_rx_Buffer_Tail^0,w,c	;volatile
  2963  0006FC  6ED9               	movwf	fsr2l,c
  2964  0006FE  0E01               	movlw	high _rxBuffer
  2965  000700  2052               	addwfc	(_rx_Buffer_Tail+1)^0,w,c	;volatile
  2966  000702  6EDA               	movwf	fsr2h,c
  2967  000704  C031  FFDF         	movff	serial_interrupt@rxData,indf2
  2968  000708  0012               	return		;funcret
  2969  00070A                     __end_of_serial_interrupt:
  2970                           	opt callstack 0
  2971                           
  2972                           	psect	rparam
  2973  0000                     
  2974                           	psect	temp
  2975  000057                     btemp:
  2976                           	opt callstack 0
  2977  000057                     	ds	1
  2978  0000                     int$flags	set	btemp
  2979  0000                     wtemp8	set	btemp+1
  2980  0000                     ttemp5	set	btemp+1
  2981  0000                     ttemp6	set	btemp+4
  2982  0000                     ttemp7	set	btemp+8
  2983                           tosu	equ	0xFFF
  2984                           tosh	equ	0xFFE
  2985                           tosl	equ	0xFFD
  2986                           stkptr	equ	0xFFC
  2987                           pclatu	equ	0xFFB
  2988                           pclath	equ	0xFFA
  2989                           pcl	equ	0xFF9
  2990                           tblptru	equ	0xFF8
  2991                           tblptrh	equ	0xFF7
  2992                           tblptrl	equ	0xFF6
  2993                           tablat	equ	0xFF5
  2994                           prodh	equ	0xFF4
  2995                           prodl	equ	0xFF3
  2996                           indf0	equ	0xFEF
  2997                           postinc0	equ	0xFEE
  2998                           postdec0	equ	0xFED
  2999                           preinc0	equ	0xFEC
  3000                           plusw0	equ	0xFEB
  3001                           fsr0h	equ	0xFEA
  3002                           fsr0l	equ	0xFE9
  3003                           wreg	equ	0xFE8
  3004                           indf1	equ	0xFE7
  3005                           postinc1	equ	0xFE6
  3006                           postdec1	equ	0xFE5
  3007                           preinc1	equ	0xFE4
  3008                           plusw1	equ	0xFE3
  3009                           fsr1h	equ	0xFE2
  3010                           fsr1l	equ	0xFE1
  3011                           bsr	equ	0xFE0
  3012                           indf2	equ	0xFDF
  3013                           postinc2	equ	0xFDE
  3014                           postdec2	equ	0xFDD
  3015                           preinc2	equ	0xFDC
  3016                           plusw2	equ	0xFDB
  3017                           fsr2h	equ	0xFDA
  3018                           fsr2l	equ	0xFD9
  3019                           status	equ	0xFD8


Data Sizes:
    Strings     534
    Constant    0
    Data        8
    BSS         302
    Persistent  2
    Stack       0

Auto Spaces:
    Space          Size  Autos    Used
    COMRAM          126     30      86
    BANK0           128      0       0
    BANK1           256      0     256
    BANK2           256      0       0
    BANK3           256      0       0
    BANK4           256      0       0
    BANK5           256      0       0

Pointer List with Targets:

    vfprintf$2	PTR PTR void  size(2) Largest target is 2
		 -> sprintf@ap(COMRAM[2]), 

    vfprintf$1	PTR const unsigned char  size(2) Largest target is 40
		 -> STR_52(CODE[13]), STR_50(CODE[16]), STR_34(CODE[17]), STR_31(CODE[17]), 
		 -> STR_29(CODE[9]), STR_22(CODE[10]), STR_17(CODE[13]), STR_14(CODE[40]), 

    vfprintf$0	PTR struct _IO_FILE size(2) Largest target is 7
		 -> sprintf@f(COMRAM[6]), 

    S1640_IO_FILE$buffer	PTR unsigned char  size(2) Largest target is 64
		 -> dht11_test@disp(COMRAM[20]), mcp32_test@val(COMRAM[32]), system_tick_test@x1(COMRAM[16]), adc_test@line1(COMRAM[16]), 
		 -> hcsr04_test@line1(COMRAM[16]), mpu6050_test@str(COMRAM[64]), 

    f.buffer	PTR unsigned char  size(2) Largest target is 64
		 -> dht11_test@disp(COMRAM[20]), mcp32_test@val(COMRAM[32]), system_tick_test@x1(COMRAM[16]), adc_test@line1(COMRAM[16]), 
		 -> hcsr04_test@line1(COMRAM[16]), mpu6050_test@str(COMRAM[64]), 

    lcd_print_xy@str	PTR const unsigned char  size(2) Largest target is 32
		 -> STR_56(CODE[14]), STR_55(CODE[8]), STR_43(CODE[3]), STR_40(CODE[8]), 
		 -> STR_28(CODE[14]), system_tick_test@x1(COMRAM[16]), STR_21(CODE[14]), adc_test@line1(COMRAM[16]), 
		 -> STR_20(CODE[14]), STR_19(CODE[8]), STR_18(CODE[8]), hcsr04_test@line1(COMRAM[16]), 
		 -> STR_16(CODE[8]), gsm_test@msg(COMRAM[30]), gsm_test@no(COMRAM[15]), STR_12(CODE[16]), 
		 -> STR_11(CODE[7]), gsm_test@pname(COMRAM[10]), STR_10(CODE[9]), STR_7(CODE[11]), 
		 -> gsm_msg_send@gsm_resp(COMRAM[32]), gsm_init@gsm_resp(COMRAM[32]), 

    lcd_print@str	PTR const unsigned char  size(2) Largest target is 32
		 -> STR_56(CODE[14]), STR_55(CODE[8]), STR_43(CODE[3]), STR_40(CODE[8]), 
		 -> STR_28(CODE[14]), system_tick_test@x1(COMRAM[16]), STR_21(CODE[14]), adc_test@line1(COMRAM[16]), 
		 -> STR_20(CODE[14]), STR_19(CODE[8]), STR_18(CODE[8]), hcsr04_test@line1(COMRAM[16]), 
		 -> STR_16(CODE[8]), gsm_test@msg(COMRAM[30]), gsm_test@no(COMRAM[15]), STR_12(CODE[16]), 
		 -> STR_11(CODE[7]), gsm_test@pname(COMRAM[10]), STR_10(CODE[9]), STR_7(CODE[11]), 
		 -> gsm_msg_send@gsm_resp(COMRAM[32]), gsm_init@gsm_resp(COMRAM[32]), 

    sp__str_str	PTR unsigned char  size(2) Largest target is 128
		 -> gsm_msg_read@gsm_resp(BANK0[128]), NULL(NULL[0]), 

    sp__str_rchr	PTR unsigned char  size(2) Largest target is 128
		 -> gsm_msg_read@gsm_resp(BANK0[128]), NULL(NULL[0]), 

    sp__str_chr	PTR unsigned char  size(2) Largest target is 128
		 -> gsm_msg_read@gsm_resp(BANK0[128]), gsm_wait@gsm_resp(COMRAM[32]), gsm_pname@gsm_resp(COMRAM[32]), NULL(NULL[0]), 


Critical Paths under _main in COMRAM

    _main->_lcd_init
    _lcd_print_xy->_lcd_goto_xy
    _lcd_print_xy->_lcd_print
    _lcd_print->_lcd_send
    _lcd_goto_xy->_lcd_send
    _lcd_init->_lcd_send
    _lcd_clear->_lcd_send
    _lcd_send->_lcd_nibble
    _lcd_nibble->_gpio_pin_write

Critical Paths under _ISR in COMRAM

    _ISR->_serial_interrupt

Critical Paths under _main in BANK0

    None.

Critical Paths under _ISR in BANK0

    None.

Critical Paths under _main in BANK1

    None.

Critical Paths under _ISR in BANK1

    None.

Critical Paths under _main in BANK2

    None.

Critical Paths under _ISR in BANK2

    None.

Critical Paths under _main in BANK3

    None.

Critical Paths under _ISR in BANK3

    None.

Critical Paths under _main in BANK4

    None.

Critical Paths under _ISR in BANK4

    None.

Critical Paths under _main in BANK5

    None.

Critical Paths under _ISR in BANK5

    None.

Call Graph Tables:

 ---------------------------------------------------------------------------------
 (Depth) Function   	        Calls       Base Space   Used Autos Params    Refs
 ---------------------------------------------------------------------------------
 (0) _main                                                 0     0      0   41961
                           _delay_ms
                      _gpio_pin_mode
                     _gpio_pin_write
                          _lcd_clear
                           _lcd_init
                       _lcd_print_xy
 ---------------------------------------------------------------------------------
 (1) _lcd_print_xy                                         4     1      3   17641
                                             19 COMRAM     4     1      3
                        _lcd_goto_xy
                          _lcd_print
 ---------------------------------------------------------------------------------
 (2) _lcd_print                                            2     0      2    7269
                                             17 COMRAM     2     0      2
                           _lcd_send
 ---------------------------------------------------------------------------------
 (2) _lcd_goto_xy                                          2     1      1    7266
                                             17 COMRAM     2     1      1
                           _lcd_send
 ---------------------------------------------------------------------------------
 (1) _lcd_init                                            13     1     12   11960
                                             17 COMRAM    13     1     12
                      _gpio_pin_mode
                           _lcd_send
 ---------------------------------------------------------------------------------
 (2) _gpio_pin_mode                                        4     3      1    1466
                                              5 COMRAM     4     3      1
 ---------------------------------------------------------------------------------
 (1) _lcd_clear                                            0     0      0    7102
                           _lcd_send
 ---------------------------------------------------------------------------------
 (3) _lcd_send                                             4     3      1    7102
                                             13 COMRAM     4     3      1
                           _delay_ms
                     _gpio_pin_write
                         _lcd_nibble
 ---------------------------------------------------------------------------------
 (4) _lcd_nibble                                           4     4      0    2132
                                              9 COMRAM     4     4      0
                     _gpio_pin_write
 ---------------------------------------------------------------------------------
 (5) _gpio_pin_write                                       4     3      1    1998
                                              5 COMRAM     4     3      1
 ---------------------------------------------------------------------------------
 (4) _delay_ms                                             5     3      2    1794
                                              5 COMRAM     5     3      2
 ---------------------------------------------------------------------------------
 Estimated maximum stack depth 5
 ---------------------------------------------------------------------------------
 (Depth) Function   	        Calls       Base Space   Used Autos Params    Refs
 ---------------------------------------------------------------------------------
 (6) _ISR                                                  2     2      0      15
                                              3 COMRAM     2     2      0
                   _serial_interrupt
                      _sys_interrupt
 ---------------------------------------------------------------------------------
 (7) _sys_interrupt                                        0     0      0       0
 ---------------------------------------------------------------------------------
 (7) _serial_interrupt                                     3     3      0      15
                                              0 COMRAM     3     3      0
 ---------------------------------------------------------------------------------
 Estimated maximum stack depth 7
 ---------------------------------------------------------------------------------

 Call Graph Graphs:

 _main (ROOT)
   _delay_ms
   _gpio_pin_mode
   _gpio_pin_write
   _lcd_clear
     _lcd_send
       _delay_ms
       _gpio_pin_write
       _lcd_nibble
         _gpio_pin_write
   _lcd_init
     _gpio_pin_mode
     _lcd_send
       _delay_ms
       _gpio_pin_write
       _lcd_nibble
         _gpio_pin_write
   _lcd_print_xy
     _lcd_goto_xy
       _lcd_send
         _delay_ms
         _gpio_pin_write
         _lcd_nibble
           _gpio_pin_write
     _lcd_print
       _lcd_send
         _delay_ms
         _gpio_pin_write
         _lcd_nibble
           _gpio_pin_write

 _ISR (ROOT)
   _serial_interrupt
   _sys_interrupt

 Address spaces:
Name               Size   Autos  Total    Cost      Usage
BIGRAM             5FF      0       0      17        0.0%
EEDATA             100      0       0       0        0.0%
BITBANK5           100      0       0      16        0.0%
BANK5              100      0       0      14        0.0%
BITBANK4           100      0       0      12        0.0%
BANK4              100      0       0      13        0.0%
BITBANK3           100      0       0      10        0.0%
BANK3              100      0       0      11        0.0%
BITBANK2           100      0       0       8        0.0%
BANK2              100      0       0       9        0.0%
BITBANK1           100      0       0       6        0.0%
BANK1              100      0     100       7      100.0%
BITBANK0            80      0       0       4        0.0%
BANK0               80      0       0       5        0.0%
BITCOMRAM           7E      0       0       0        0.0%
COMRAM              7E     1E      56       1       68.3%
BITSFR               0      0       0     200        0.0%
SFR                  0      0       0     200        0.0%
STACK                0      0       0       2        0.0%
NULL                 0      0       0       0        0.0%
ABS                  0      0     156      15        0.0%
DATA                 0      0     156       3        0.0%
CODE                 0      0       0       0        0.0%


Microchip Technology PIC18 Macro Assembler V2.10 build 88905656 
Symbol Table                                                                                   Sat Jan  4 14:33:27 2020

                        l5 09C4                          l8 09DA                _SSPSTATbits 000FC7  
                       _EN 0055                         _RS 0056              ?_lcd_print_xy 0042  
              __CFG_OSC$HS 000000          gpio_pin_mode@mode 0034                        l152 04B8  
                      l179 026E                        l710 0848                        l720 059E  
                      l705 08B8                        l726 09A2                        l729 0A12  
                      l695 07A8                        l698 0A28                        _GIE 007F97  
                      _ISR 0008                        _PSA 007EAB                lcd_nibble@i 003B  
                      wreg 000FE8               __CFG_LVP$OFF 000000                       ?_ISR 002F  
             __CFG_WDT$OFF 000000                       l3100 0128                       l3110 0192  
                     l3102 014C                       l3120 0208                       l3112 01A2  
                     l3104 015C                       l3200 035A                       l3130 09A4  
                     l3122 020C                       l3114 01C6                       l3106 017E  
                     l3210 03B0                       l3202 036A                       l3132 09B0  
                     l3124 021C                       l3116 01D6                       l3108 018E  
                     l3220 0416                       l3204 036E                       l3212 03D0  
                     l3134 09C0                       l3126 0240                       l3118 01F8  
                     l3150 08A8                       l3142 0850                       l3230 046A  
                     l3222 0426                       l3214 03E0                       l3206 037E  
                     l3128 0250                       l3080 0068                       l3072 0014  
                     l3144 0876                       l3136 084C                       l3160 07C8  
                     l3152 07AC                       l3232 048C                       l3216 03E4  
                     l3224 0446                       l3208 03A0                       l3090 00D2  
                     l3074 0024                       l3082 008A                       l3146 0890  
                     l3170 0800                       l3162 07D8                       l3154 07B0  
                     l3234 049C                       l3226 0456                       l3218 03F4  
                     l3092 00E2                       l3084 009A                       l3076 0034  
                     l3148 08A6                       l3172 080C                       l3164 07E6  
                     l3156 07B6                       l3228 045A                       l3180 0282  
                     l3340 04BE                       l3086 009E                       l3094 0104  
                     l3078 0058                       l3174 0816                       l3166 07F0  
                     l3158 07BC                       l3190 02F4                       l3182 0292  
                     l3350 053A                       l3342 04EE                       l3096 0114  
                     l3088 00AE                       l3176 0822                       l3168 07F6  
                     l3192 02F8                       l3184 02B4                       l3360 0976  
                     l3352 0542                       l3344 04F8                       l3098 0118  
                     l3194 0308                       l3186 02C4                       l3178 0272  
                     l3362 0986                       l3346 0500                       l3338 04BA  
                     l3450 09FC                       l3196 032A                       l3188 02E4  
                     l3364 0996                       l3348 0530                       l3356 056E  
                     l3452 0A06                       l3198 033A                       l3470 074E  
                     l3358 0966                       l3448 0A14                       l3480 078A  
                     l3472 0762                       l3464 0726                       l3456 070A  
                     l3482 0794                       l3474 076C                       l3466 073C  
                     l3458 0722                       l3730 05FC                       l3484 079E  
                     l3476 0776                       l3468 073E                       l3740 0630  
                     l3732 0606                       l3724 05A0                       l3478 0780  
                     l3742 063A                       l3734 0610                       l3726 05D8  
                     l3744 0644                       l3736 061A                       l3728 05EA  
                     l3738 0624                       _ADON 007E10                       _EEIF 007D0C  
                     STR_1 7FEF                       STR_2 7FFA                       STR_3 7F7C  
                     STR_4 7FAA                       STR_5 7FFD                       STR_6 7FA1  
                     STR_7 7F67                       STR_8 7F98                       STR_9 7FF7  
                     _T0CS 007EAD                       u2000 018E                       u2001 018A  
                     u2010 01A2                       u2011 019E                       u2100 09DA  
                     u2101 09D6                       u2030 01D6                       u2031 01D2  
                     u2024 01B4                       u2120 0876                       u2200 02F4  
                     u2025 01B0                       u2121 0872                       u2201 02F0  
                     u2050 0208                       u2130 08B8                       u2114 0862  
                     u2210 0308                       u2051 0204                       u2131 08B4  
                     u2115 085E                       u2211 0304                       u2060 021C  
                     u2044 01E8                       u2140 07D8                       u2300 03E0  
                     u2061 0218                       u2045 01E4                       u2141 07D4  
                     u2301 03DC                       _LATA 000F89                       u2310 03F4  
                     u2230 033A                       u2150 0282                       _LATB 000F8A  
                     u2311 03F0                       u2231 0336                       u2151 027E  
                     _LATC 000F8B                       u2080 0250                       u2224 031A  
                     u2160 0292                       _LATD 000F8C                       u2081 024C  
                     u2225 0316                       u2161 028E                       _LATE 000F8D  
                     u2074 022E                       u2330 0426                       u2250 036A  
                     u2075 022A                       u2331 0422                       u2251 0366  
                     u2324 0406                       u2260 037E                       u2244 034C  
                     u2180 02C4                       u2325 0402                       u2261 037A  
                     u2245 0348                       u2181 02C0                       u2094 0262  
                     u2350 0456                       u2174 02A4                       u2095 025E  
                     u2351 0452                       u2175 02A0                       u2360 046A  
                     u2344 0438                       u2280 03B0                       u2600 059E  
                     u2361 0466                       u2345 0434                       u2281 03AC  
                     u2601 059A                       u2274 0390                       u2194 02D6  
                     u2610 0976                       u2275 038C                       u2195 02D2  
                     u2611 0972                       u1900 009A                       u2380 049C  
                     u2620 0996                       u2540 04DE                       u1901 0096  
                     u2381 0498                       u2621 0992                       u1910 00AE  
                     u2374 047C                       u2294 03C2                       u2550 04EE  
                     u1911 00AA                       u2375 0478                       u2295 03BE  
                     u2551 04EA                       u2640 074E                       u2560 0520  
                     u2641 074A                       u1930 00E2                       u1850 0024  
                     u2394 04AE                       u2570 0530                       u1931 00DE  
                     u1851 0020                       u2395 04AA                       u2571 052C  
                     u2547 04D4                       u1924 00C0                       u1860 0034  
                     u2580 0566                       u1925 00BC                       u1861 0030  
                     u1950 0114                       u2590 058E                       u1951 0110  
                     u2567 0516                       u1960 0128                       u1944 00F4  
                     u1880 0068                       u1961 0124                       u1945 00F0  
                     u1881 0064                       u1874 0046                       u1875 0042  
                     u2587 055C                       _PEIE 007F96                       u1980 015C  
                     u1981 0158                       u2597 0584                       u1974 013A  
                     u1894 007A                       u1975 0136                       u1895 0076  
                     u2697 09B6                       u1994 016E                       u1995 016A  
                     _RCIE 007CED                       _RCIF 007CF5                       _TMR1 000FCE  
                     _bits 0021                       _main 05A0                       fsr0h 000FEA  
                     fsr1h 000FE2                       indf0 000FEF                       fsr2h 000FDA  
                     fsr0l 000FE9                       indf2 000FDF                       fsr1l 000FE1  
                     fsr2l 000FD9                       btemp 0057              __CFG_BOREN$ON 000000  
                     start 000E               lcd_goto_xy@x 0041               lcd_goto_xy@y 0040  
             ___param_bank 000000                      ??_ISR 0032               lcd_send@byte 003F  
           ??_lcd_print_xy 0045                      ?_main 002F          gpio_pin_write@pin 0037  
                    _ADRES 000FC3                      _EEADR 000FA9                      STR_10 7F8F  
                    STR_11 7FE8                      STR_20 7F28                      STR_12 7ED1  
                    STR_21 7F0C                      STR_13 7EE1                      STR_22 7F72  
                    STR_30 7E54                      STR_14 7DE9                      STR_31 7E9F  
                    STR_23 7E8E                      STR_40 7FC3                      STR_16 7FBB  
                    STR_24 7E7B                      STR_32 7E28                      STR_41 7F5C  
                    STR_17 7F36                      STR_25 7F1A                      STR_42 7FDA  
                    STR_50 7EC1                      STR_34 7EB0                      STR_26 7E68  
                    STR_43 7FF4                      STR_27 7FD3                      STR_19 7FCB  
                    STR_52 7F43                      STR_36 7E3F                      STR_45 7FE1  
                    STR_29 7F86                      STR_37 7EF0                      STR_38 7EFE  
                    STR_55 7FCB                      STR_39 7FB3                      STR_56 7F28  
                    STR_48 7F50                      STR_49 7E11                      _T0PS0 007EA8  
                    _T0PS1 007EA9                      _T0PS2 007EAA                      i2l336 0708  
                    i2l531 09F8                      i2l497 08E8                      i2l498 090A  
                    _RCREG 000FAE                      _SPBRG 000FAF                      _PORTA 000F80  
                    _PORTB 000F81                      _PORTC 000F82                      _PORTD 000F83  
                    _PORTE 000F84                      _TRISA 000F92                      _TRISB 000F93  
                    _TRISC 000F94                      _TRISD 000F95                      _TRISE 000F96  
            rtc_test@F3039 004D                      _TXREG 000FAD               lcd_print@str 0040  
   __size_of_gpio_pin_mode 024A                      tablat 000FF5                      ttemp5 0058  
                    ttemp6 005B                      ttemp7 005F                      status 000FD8  
                    wtemp8 0058            __initialization 0916                _system_tick 002A  
             __end_of_main 0658                     ??_main 004D              __activetblptr 000002  
                   _ADCON0 000FC2                     _ADCON1 000FC1                     _ADCON2 000FC0  
                   _EEDATA 000FA8                     _EECON2 000FA7                     _T08BIT 007EAE  
                   _GODONE 007E11   __end_of_serial_interrupt 070A                     i2l2340 09F4  
                   i2l2270 065C                     i2l2334 09DC                     i2l2280 06BA  
                   i2l2272 066E                     i2l2336 09DE                     i2l2290 06F8  
                   i2l2282 06CE                     i2l2274 0680                     i2l2338 09F0  
                   i2l2284 06D6                     i2l2276 06A4                     i2l2268 0658  
                   i2l2286 06E8                     i2l2278 06A8                     i2l2288 06F4  
                   i2l2770 08E0                     i2l2780 0908                     i2l2766 08C4  
                   i2l2776 08F6                     i2l2768 08D2                     i2l2778 0904  
                   _TMR0IE 007F95                     _TMR0IF 007F92                     _TMR0ON 007EAF  
                   _TMR1ON 007E68                     _SSPADD 000FC8                     _SSPBUF 000FC9  
         __end_of_delay_ms 09DC           __end_of_lcd_init 07AA           __end_of_lcd_send 084A  
            lcd_print_xy@x 0045              lcd_print_xy@y 0042       __size_of_lcd_goto_xy 0040  
            _gpio_pin_mode 0270                     clear_0 093E                     clear_1 0950  
  __size_of_gpio_pin_write 025E               __pdataCOMRAM 004D               __mediumconst 7DE8  
                   tblptrh 000FF7                     tblptrl 000FF6                     tblptru 000FF8  
     __end_of_lcd_print_xy 0A14                 __accesstop 0080    __end_of__initialization 0956  
          __CFG_PBADEN$OFF 000000     serial_interrupt@rxData 0031              ___rparam_used 000001  
           __pcstackCOMRAM 002F             ?_gpio_pin_mode 0034         __size_of_lcd_clear 0016  
       __size_of_lcd_print 00E6             lcd_send@rs_pin 003C                 __pbssBANK1 0100  
   __size_of_sys_interrupt 001E                 __pnvCOMRAM 0055                    _T1CKPS0 007E6C  
    system_tick_test@F3028 0001                 _lcd_nibble 084A                  ?_delay_ms 0034  
    gpio_pin_write@bit_val 0034                    _SSPCON1 000FC6                  ?_lcd_init 0040  
                ?_lcd_send 003C                    _SSPSTAT 000FC7                    __Hparam 0000  
                  __Lparam 0000            ??_gpio_pin_mode 0035          __end_of_lcd_clear 0A2A  
        __end_of_lcd_print 05A0              _sys_interrupt 09DC                    __pcinit 0916  
                  __ramtop 0600                    __ptext0 05A0                    __ptext1 09FA  
                  __ptext2 04BA                    __ptext3 0964                    __ptext4 070A  
                  __ptext5 0270                    __ptext6 0A14                    __ptext7 07AA  
                  __ptext8 084A                    __ptext9 0012             _gpio_pin_write 0012  
             __size_of_ISR 090E                 ??_delay_ms 0036      __size_of_lcd_print_xy 001A  
               ??_lcd_init 004C                 ??_lcd_send 003D             __pintcode_body 08BA  
     end_of_initialization 0956          ?_serial_interrupt 002F              __Lmediumconst 7DE8  
                  int_func 08BA         ??_serial_interrupt 002F                  _RCSTAbits 000FAB  
                  postdec1 000FE5                    postinc0 000FEE             ?_sys_interrupt 002F  
           _rx_Buffer_Head 0053             _rx_Buffer_Tail 0051     __end_of_gpio_pin_write 0270  
             _lcd_print_xy 09FA                ?_lcd_nibble 002F                  _TRISCbits 000F94  
         gpio_pin_mode@pin 0037                 lcd_init@d4 0040                 lcd_init@d5 0042  
               lcd_init@d6 0044                 lcd_init@d7 0046                 lcd_init@en 004A  
               lcd_init@rs 0048                  _TXSTAbits 000FAC              ??_lcd_goto_xy 0041  
            __pidataCOMRAM 0A2A            ?_gpio_pin_write 0034        start_initialization 0916  
              __end_of_ISR 0916            ??_sys_interrupt 002F        __size_of_lcd_nibble 0070  
      __end_of_lcd_goto_xy 09A4                __pbssCOMRAM 0001        lcd_send@high_nibble 003D  
        __size_of_delay_ms 0038          __size_of_lcd_init 00A0          __size_of_lcd_send 00A0  
                __pintcode 0008              __pmediumconst 7DE8                  _lcd_clear 0A14  
                _lcd_print 04BA              adc_test@F3023 0011                  delay_ms@d 0034  
                delay_ms@i 0037                   i2u130_40 06A4                   i2u130_41 06A0  
                 i2u131_40 06BA                   i2u131_41 06B6                   i2u132_40 06CE  
                 i2u132_41 06CA                   i2u133_40 06E8                   i2u133_41 06E4  
                 i2u128_40 066E                   i2u128_41 066A                   i2u129_40 0680  
                 i2u129_41 067C                   i2u139_40 09F0                   i2u139_41 09EC  
                 i2u176_40 08D2                   i2u176_41 08CE                   i2u177_40 08E0  
                 i2u177_41 08DC                   _PIR1bits 000F9E                   i2u178_40 08F6  
                 i2u178_41 08F2                   i2u179_40 0904                   i2u179_41 0900  
              _lcd_goto_xy 0964      __end_of_gpio_pin_mode 04BA  __size_of_serial_interrupt 00B2  
               ?_lcd_clear 002F                 ?_lcd_print 0040                  lcd_init@i 004C  
             ??_lcd_nibble 0038                  copy_data0 092A                 _EECON1bits 000FA6  
                 __Hrparam 0000                   __Lrparam 0000           ??_gpio_pin_write 0035  
       __end_of_lcd_nibble 08BA            lcd_print_xy@str 0043                   _delay_ms 09A4  
                 __ptext10 09A4                   __ptext12 09DC                   __ptext13 0658  
                 _lcd_init 070A                   _lcd_send 07AA              __size_of_main 00B8  
                 _humidity 002D                   _rxBuffer 0100                   int$flags 0057  
              ??_lcd_clear 0040              _lcd_data_pins 0026                ??_lcd_print 0042  
               _INTCONbits 000FF2         lcd_send@low_nibble 003E                   intlevel2 0000  
         lcd_nibble@nibble 003A      __end_of_sys_interrupt 09FA           _serial_interrupt 0658  
              _temperature 002C                _SSPCON2bits 000FC5                _timer_count 002E  
             ?_lcd_goto_xy 0040  
